CCS PCH C Compiler, Version 5.025, 5967               08-Nov-17 13:53

               Filename:   C:\Users\Dung Phan\Documents\PID\main.lst

               ROM used:   3220 bytes (20%)
                           Largest free fragment is 13164
               RAM used:   22 (3%) at main() level
                           42 (5%) worst case
               Stack used: 5 locations
               Stack size: 31

*
0000:  GOTO   0B60
.................... #include <main.h> 
.................... #include <18F4431.h> 
.................... //////////// Standard Header file for the PIC18F4431 device //////////////// 
.................... /////////////////////////////////////////////////////////////////////////// 
.................... ////        (C) Copyright 1996, 2013 Custom Computer Services          //// 
.................... //// This source code may only be used by licensed users of the CCS C  //// 
.................... //// compiler.  This source code may only be distributed to other      //// 
.................... //// licensed users of the CCS C compiler.  No other use, reproduction //// 
.................... //// or distribution is permitted without written permission.          //// 
.................... //// Derivative programs created using this software in object code    //// 
.................... //// form are not restricted in any way.                               //// 
.................... /////////////////////////////////////////////////////////////////////////// 
.................... #device PIC18F4431 
0004:  CLRF   FF7
0006:  ADDLW  14
0008:  MOVWF  FF6
000A:  MOVLW  00
000C:  ADDWFC FF7,F
000E:  TBLRD*+
0010:  MOVF   FF5,W
0012:  RETURN 0
0014:  DATA 28,0C
0016:  DATA 01,06
0018:  DATA 49,6E
001A:  DATA 69,74
001C:  DATA 61,6C
001E:  DATA 3A,20
0020:  DATA 25,64
0022:  DATA 25,64
0024:  DATA 25,64
0026:  DATA 25,64
0028:  DATA 00,00
002A:  DATA 52,65
002C:  DATA 73,70
002E:  DATA 6F,6E
0030:  DATA 64,3A
0032:  DATA 20,25
0034:  DATA 64,25
0036:  DATA 64,25
0038:  DATA 64,25
003A:  DATA 64,00
*
01CE:  CLRF   01
01D0:  CLRF   02
01D2:  CLRF   00
01D4:  CLRF   03
01D6:  MOVF   1D,W
01D8:  BNZ   01DE
01DA:  MOVF   1C,W
01DC:  BZ    020E
01DE:  MOVLW  10
01E0:  MOVWF  1E
01E2:  BCF    FD8.0
01E4:  RLCF   1A,F
01E6:  RLCF   1B,F
01E8:  RLCF   00,F
01EA:  RLCF   03,F
01EC:  MOVF   1D,W
01EE:  SUBWF  03,W
01F0:  BNZ   01F6
01F2:  MOVF   1C,W
01F4:  SUBWF  00,W
01F6:  BNC   0206
01F8:  MOVF   1C,W
01FA:  SUBWF  00,F
01FC:  BTFSS  FD8.0
01FE:  DECF   03,F
0200:  MOVF   1D,W
0202:  SUBWF  03,F
0204:  BSF    FD8.0
0206:  RLCF   01,F
0208:  RLCF   02,F
020A:  DECFSZ 1E,F
020C:  BRA    01E2
020E:  RETURN 0
*
0322:  TBLRD*+
0324:  MOVFF  FF6,17
0328:  MOVFF  FF7,18
032C:  MOVFF  FF5,1C
0330:  RCALL  02E0
0332:  MOVFF  17,FF6
0336:  MOVFF  18,FF7
033A:  DECFSZ 16,F
033C:  BRA    0322
033E:  RETURN 0
0340:  MOVF   1D,W
0342:  CLRF   01
0344:  SUBWF  1C,W
0346:  BC    034E
0348:  MOVFF  1C,00
034C:  BRA    0366
034E:  CLRF   00
0350:  MOVLW  08
0352:  MOVWF  1E
0354:  RLCF   1C,F
0356:  RLCF   00,F
0358:  MOVF   1D,W
035A:  SUBWF  00,W
035C:  BTFSC  FD8.0
035E:  MOVWF  00
0360:  RLCF   01,F
0362:  DECFSZ 1E,F
0364:  BRA    0354
0366:  RETURN 0
0368:  MOVLW  20
036A:  BTFSS  17.4
036C:  MOVLW  30
036E:  MOVWF  18
0370:  MOVFF  16,00
0374:  BTFSS  16.7
0376:  BRA    0388
0378:  COMF   00,F
037A:  INCF   00,F
037C:  MOVFF  00,16
0380:  MOVLW  2D
0382:  MOVWF  18
0384:  BSF    17.7
0386:  BSF    17.0
0388:  MOVF   01,W
038A:  MOVFF  16,1C
038E:  MOVLW  64
0390:  MOVWF  1D
0392:  RCALL  0340
0394:  MOVFF  00,16
0398:  MOVLW  30
039A:  ADDWF  01,W
039C:  MOVWF  19
039E:  MOVFF  16,1C
03A2:  MOVLW  0A
03A4:  MOVWF  1D
03A6:  RCALL  0340
03A8:  MOVLW  30
03AA:  ADDWF  00,W
03AC:  MOVWF  1B
03AE:  MOVLW  30
03B0:  ADDWF  01,W
03B2:  MOVWF  1A
03B4:  MOVFF  18,00
03B8:  MOVLW  30
03BA:  SUBWF  19,W
03BC:  BZ    03C6
03BE:  BSF    17.1
03C0:  BTFSC  17.7
03C2:  BSF    17.2
03C4:  BRA    03EA
03C6:  MOVFF  18,19
03CA:  MOVLW  20
03CC:  MOVWF  18
03CE:  MOVLW  30
03D0:  SUBWF  1A,W
03D2:  BZ    03DC
03D4:  BSF    17.0
03D6:  BTFSC  17.7
03D8:  BSF    17.1
03DA:  BRA    03EA
03DC:  BTFSS  FD8.2
03DE:  BSF    17.0
03E0:  BNZ   03EA
03E2:  MOVFF  19,1A
03E6:  MOVLW  20
03E8:  MOVWF  19
03EA:  BTFSC  17.2
03EC:  BRA    03F8
03EE:  BTFSC  17.1
03F0:  BRA    03FE
03F2:  BTFSC  17.0
03F4:  BRA    0404
03F6:  BRA    040A
03F8:  MOVFF  18,1C
03FC:  RCALL  02E0
03FE:  MOVFF  19,1C
0402:  RCALL  02E0
0404:  MOVFF  1A,1C
0408:  RCALL  02E0
040A:  MOVFF  1B,1C
040E:  RCALL  02E0
0410:  RETURN 0
0412:  MOVF   17,W
0414:  XORWF  19,W
0416:  ANDLW  80
0418:  MOVWF  1B
041A:  BTFSS  17.7
041C:  BRA    0428
041E:  COMF   16,F
0420:  COMF   17,F
0422:  INCF   16,F
0424:  BTFSC  FD8.2
0426:  INCF   17,F
0428:  BTFSS  19.7
042A:  BRA    0436
042C:  COMF   18,F
042E:  COMF   19,F
0430:  INCF   18,F
0432:  BTFSC  FD8.2
0434:  INCF   19,F
0436:  MOVF   16,W
0438:  MULWF  18
043A:  MOVFF  FF3,01
043E:  MOVFF  FF4,00
0442:  MULWF  19
0444:  MOVF   FF3,W
0446:  ADDWF  00,F
0448:  MOVF   17,W
044A:  MULWF  18
044C:  MOVF   FF3,W
044E:  ADDWFC 00,W
0450:  MOVWF  02
0452:  BTFSS  1B.7
0454:  BRA    0460
0456:  COMF   01,F
0458:  COMF   02,F
045A:  INCF   01,F
045C:  BTFSC  FD8.2
045E:  INCF   02,F
0460:  GOTO   09B8 (RETURN)
0464:  MOVLW  8E
0466:  MOVWF  00
0468:  MOVFF  1B,01
046C:  MOVFF  1A,02
0470:  CLRF   03
0472:  BTFSS  1B.7
0474:  BRA    0480
0476:  COMF   01,F
0478:  COMF   02,F
047A:  INCF   02,F
047C:  BNZ   0480
047E:  INCF   01,F
0480:  MOVF   01,F
0482:  BNZ   0496
0484:  MOVFF  02,01
0488:  CLRF   02
048A:  MOVLW  08
048C:  SUBWF  00,F
048E:  MOVF   01,F
0490:  BNZ   0496
0492:  CLRF   00
0494:  BRA    04AA
0496:  BCF    FD8.0
0498:  BTFSC  01.7
049A:  BRA    04A4
049C:  RLCF   02,F
049E:  RLCF   01,F
04A0:  DECF   00,F
04A2:  BRA    0496
04A4:  BTFSC  1B.7
04A6:  BRA    04AA
04A8:  BCF    01.7
04AA:  RETURN 0
04AC:  MOVF   16,W
04AE:  BTFSC  FD8.2
04B0:  BRA    0594
04B2:  MOVWF  00
04B4:  MOVF   1A,W
04B6:  BTFSC  FD8.2
04B8:  BRA    0594
04BA:  ADDWF  00,F
04BC:  BNC   04C6
04BE:  MOVLW  81
04C0:  ADDWF  00,F
04C2:  BC    0594
04C4:  BRA    04CE
04C6:  MOVLW  7F
04C8:  SUBWF  00,F
04CA:  BNC   0594
04CC:  BZ    0594
04CE:  MOVFF  17,1E
04D2:  MOVF   1B,W
04D4:  XORWF  1E,F
04D6:  BSF    17.7
04D8:  BSF    1B.7
04DA:  MOVF   19,W
04DC:  MULWF  1D
04DE:  MOVFF  FF4,20
04E2:  MOVF   18,W
04E4:  MULWF  1C
04E6:  MOVFF  FF4,03
04EA:  MOVFF  FF3,1F
04EE:  MULWF  1D
04F0:  MOVF   FF3,W
04F2:  ADDWF  20,F
04F4:  MOVF   FF4,W
04F6:  ADDWFC 1F,F
04F8:  MOVLW  00
04FA:  ADDWFC 03,F
04FC:  MOVF   19,W
04FE:  MULWF  1C
0500:  MOVF   FF3,W
0502:  ADDWF  20,F
0504:  MOVF   FF4,W
0506:  ADDWFC 1F,F
0508:  MOVLW  00
050A:  CLRF   02
050C:  ADDWFC 03,F
050E:  ADDWFC 02,F
0510:  MOVF   17,W
0512:  MULWF  1D
0514:  MOVF   FF3,W
0516:  ADDWF  1F,F
0518:  MOVF   FF4,W
051A:  ADDWFC 03,F
051C:  MOVLW  00
051E:  ADDWFC 02,F
0520:  MOVF   17,W
0522:  MULWF  1C
0524:  MOVF   FF3,W
0526:  ADDWF  03,F
0528:  MOVF   FF4,W
052A:  ADDWFC 02,F
052C:  MOVLW  00
052E:  CLRF   01
0530:  ADDWFC 01,F
0532:  MOVF   19,W
0534:  MULWF  1B
0536:  MOVF   FF3,W
0538:  ADDWF  1F,F
053A:  MOVF   FF4,W
053C:  ADDWFC 03,F
053E:  MOVLW  00
0540:  ADDWFC 02,F
0542:  ADDWFC 01,F
0544:  MOVF   18,W
0546:  MULWF  1B
0548:  MOVF   FF3,W
054A:  ADDWF  03,F
054C:  MOVF   FF4,W
054E:  ADDWFC 02,F
0550:  MOVLW  00
0552:  ADDWFC 01,F
0554:  MOVF   17,W
0556:  MULWF  1B
0558:  MOVF   FF3,W
055A:  ADDWF  02,F
055C:  MOVF   FF4,W
055E:  ADDWFC 01,F
0560:  INCF   00,F
0562:  BTFSC  01.7
0564:  BRA    0570
0566:  RLCF   1F,F
0568:  RLCF   03,F
056A:  RLCF   02,F
056C:  RLCF   01,F
056E:  DECF   00,F
0570:  MOVLW  00
0572:  BTFSS  1F.7
0574:  BRA    058A
0576:  INCF   03,F
0578:  ADDWFC 02,F
057A:  ADDWFC 01,F
057C:  MOVF   01,W
057E:  BNZ   058A
0580:  MOVF   02,W
0582:  BNZ   058A
0584:  MOVF   03,W
0586:  BNZ   058A
0588:  INCF   00,F
058A:  BTFSC  1E.7
058C:  BSF    01.7
058E:  BTFSS  1E.7
0590:  BCF    01.7
0592:  BRA    059C
0594:  CLRF   00
0596:  CLRF   01
0598:  CLRF   02
059A:  CLRF   03
059C:  RETURN 0
059E:  MOVLW  80
05A0:  BTFSC  FD8.1
05A2:  XORWF  1F,F
05A4:  CLRF   24
05A6:  CLRF   25
05A8:  MOVFF  1B,23
05AC:  MOVF   1F,W
05AE:  XORWF  23,F
05B0:  MOVF   1A,W
05B2:  BTFSC  FD8.2
05B4:  BRA    076E
05B6:  MOVWF  22
05B8:  MOVWF  00
05BA:  MOVF   1E,W
05BC:  BTFSC  FD8.2
05BE:  BRA    0780
05C0:  SUBWF  22,F
05C2:  BTFSC  FD8.2
05C4:  BRA    06C8
05C6:  BNC   0642
05C8:  MOVFF  1F,28
05CC:  BSF    28.7
05CE:  MOVFF  20,27
05D2:  MOVFF  21,26
05D6:  CLRF   25
05D8:  BCF    FD8.0
05DA:  RRCF   28,F
05DC:  RRCF   27,F
05DE:  RRCF   26,F
05E0:  RRCF   25,F
05E2:  DECFSZ 22,F
05E4:  BRA    05D6
05E6:  BTFSS  23.7
05E8:  BRA    05F0
05EA:  BSF    24.0
05EC:  BRA    07A8
05EE:  BCF    24.0
05F0:  BCF    22.0
05F2:  BSF    24.4
05F4:  CLRF   FEA
05F6:  MOVLW  1D
05F8:  MOVWF  FE9
05FA:  BRA    07CE
05FC:  BCF    24.4
05FE:  BTFSC  23.7
0600:  BRA    0616
0602:  BTFSS  22.0
0604:  BRA    062C
0606:  RRCF   28,F
0608:  RRCF   27,F
060A:  RRCF   26,F
060C:  RRCF   25,F
060E:  INCF   00,F
0610:  BTFSC  FD8.2
0612:  BRA    079E
0614:  BRA    062C
0616:  BTFSC  28.7
0618:  BRA    0632
061A:  BCF    FD8.0
061C:  RLCF   25,F
061E:  RLCF   26,F
0620:  RLCF   27,F
0622:  RLCF   28,F
0624:  DECF   00,F
0626:  BTFSC  FD8.2
0628:  BRA    079E
062A:  BRA    0616
062C:  BSF    24.6
062E:  BRA    0706
0630:  BCF    24.6
0632:  MOVFF  1B,23
0636:  BTFSS  1B.7
0638:  BRA    063E
063A:  BSF    28.7
063C:  BRA    0790
063E:  BCF    28.7
0640:  BRA    0790
0642:  MOVFF  1E,22
0646:  MOVFF  1E,00
064A:  MOVF   1A,W
064C:  SUBWF  22,F
064E:  MOVFF  1B,28
0652:  BSF    28.7
0654:  MOVFF  1C,27
0658:  MOVFF  1D,26
065C:  CLRF   25
065E:  BCF    FD8.0
0660:  RRCF   28,F
0662:  RRCF   27,F
0664:  RRCF   26,F
0666:  RRCF   25,F
0668:  DECFSZ 22,F
066A:  BRA    065C
066C:  BTFSS  23.7
066E:  BRA    0676
0670:  BSF    24.1
0672:  BRA    07A8
0674:  BCF    24.1
0676:  BCF    22.0
0678:  BSF    24.5
067A:  CLRF   FEA
067C:  MOVLW  21
067E:  MOVWF  FE9
0680:  BRA    07CE
0682:  BCF    24.5
0684:  BTFSC  23.7
0686:  BRA    069C
0688:  BTFSS  22.0
068A:  BRA    06B2
068C:  RRCF   28,F
068E:  RRCF   27,F
0690:  RRCF   26,F
0692:  RRCF   25,F
0694:  INCF   00,F
0696:  BTFSC  FD8.2
0698:  BRA    079E
069A:  BRA    06B2
069C:  BTFSC  28.7
069E:  BRA    06B8
06A0:  BCF    FD8.0
06A2:  RLCF   25,F
06A4:  RLCF   26,F
06A6:  RLCF   27,F
06A8:  RLCF   28,F
06AA:  DECF   00,F
06AC:  BTFSC  FD8.2
06AE:  BRA    079E
06B0:  BRA    069C
06B2:  BSF    24.7
06B4:  BRA    0706
06B6:  BCF    24.7
06B8:  MOVFF  1F,23
06BC:  BTFSS  1F.7
06BE:  BRA    06C4
06C0:  BSF    28.7
06C2:  BRA    0790
06C4:  BCF    28.7
06C6:  BRA    0790
06C8:  MOVFF  1F,28
06CC:  BSF    28.7
06CE:  MOVFF  20,27
06D2:  MOVFF  21,26
06D6:  BTFSS  23.7
06D8:  BRA    06E2
06DA:  BCF    28.7
06DC:  BSF    24.2
06DE:  BRA    07A8
06E0:  BCF    24.2
06E2:  CLRF   25
06E4:  BCF    22.0
06E6:  CLRF   FEA
06E8:  MOVLW  1D
06EA:  MOVWF  FE9
06EC:  BRA    07CE
06EE:  BTFSC  23.7
06F0:  BRA    072A
06F2:  MOVFF  1B,23
06F6:  BTFSS  22.0
06F8:  BRA    0706
06FA:  RRCF   28,F
06FC:  RRCF   27,F
06FE:  RRCF   26,F
0700:  RRCF   25,F
0702:  INCF   00,F
0704:  BZ    079E
0706:  BTFSS  25.7
0708:  BRA    0720
070A:  INCF   26,F
070C:  BNZ   0720
070E:  INCF   27,F
0710:  BNZ   0720
0712:  INCF   28,F
0714:  BNZ   0720
0716:  RRCF   28,F
0718:  RRCF   27,F
071A:  RRCF   26,F
071C:  INCF   00,F
071E:  BZ    079E
0720:  BTFSC  24.6
0722:  BRA    0630
0724:  BTFSC  24.7
0726:  BRA    06B6
0728:  BRA    0762
072A:  MOVLW  80
072C:  XORWF  28,F
072E:  BTFSS  28.7
0730:  BRA    073A
0732:  BRA    07A8
0734:  MOVFF  1F,23
0738:  BRA    074E
073A:  MOVFF  1B,23
073E:  MOVF   28,F
0740:  BNZ   074E
0742:  MOVF   27,F
0744:  BNZ   074E
0746:  MOVF   26,F
0748:  BNZ   074E
074A:  CLRF   00
074C:  BRA    0790
074E:  BTFSC  28.7
0750:  BRA    0762
0752:  BCF    FD8.0
0754:  RLCF   25,F
0756:  RLCF   26,F
0758:  RLCF   27,F
075A:  RLCF   28,F
075C:  DECFSZ 00,F
075E:  BRA    074E
0760:  BRA    079E
0762:  BTFSS  23.7
0764:  BRA    076A
0766:  BSF    28.7
0768:  BRA    0790
076A:  BCF    28.7
076C:  BRA    0790
076E:  MOVFF  1E,00
0772:  MOVFF  1F,28
0776:  MOVFF  20,27
077A:  MOVFF  21,26
077E:  BRA    0790
0780:  MOVFF  1A,00
0784:  MOVFF  1B,28
0788:  MOVFF  1C,27
078C:  MOVFF  1D,26
0790:  MOVFF  28,01
0794:  MOVFF  27,02
0798:  MOVFF  26,03
079C:  BRA    0806
079E:  CLRF   00
07A0:  CLRF   01
07A2:  CLRF   02
07A4:  CLRF   03
07A6:  BRA    0806
07A8:  CLRF   25
07AA:  COMF   26,F
07AC:  COMF   27,F
07AE:  COMF   28,F
07B0:  COMF   25,F
07B2:  INCF   25,F
07B4:  BNZ   07C0
07B6:  INCF   26,F
07B8:  BNZ   07C0
07BA:  INCF   27,F
07BC:  BNZ   07C0
07BE:  INCF   28,F
07C0:  BTFSC  24.0
07C2:  BRA    05EE
07C4:  BTFSC  24.1
07C6:  BRA    0674
07C8:  BTFSC  24.2
07CA:  BRA    06E0
07CC:  BRA    0734
07CE:  MOVF   FEF,W
07D0:  ADDWF  26,F
07D2:  BNC   07DE
07D4:  INCF   27,F
07D6:  BNZ   07DE
07D8:  INCF   28,F
07DA:  BTFSC  FD8.2
07DC:  BSF    22.0
07DE:  MOVF   FED,F
07E0:  MOVF   FEF,W
07E2:  ADDWF  27,F
07E4:  BNC   07EC
07E6:  INCF   28,F
07E8:  BTFSC  FD8.2
07EA:  BSF    22.0
07EC:  MOVF   FED,F
07EE:  MOVF   FEF,W
07F0:  BTFSC  FEF.7
07F2:  BRA    07F6
07F4:  XORLW  80
07F6:  ADDWF  28,F
07F8:  BTFSC  FD8.0
07FA:  BSF    22.0
07FC:  BTFSC  24.4
07FE:  BRA    05FC
0800:  BTFSC  24.5
0802:  BRA    0682
0804:  BRA    06EE
0806:  RETURN 0
0808:  MOVLW  8E
080A:  MOVWF  00
080C:  MOVF   1A,W
080E:  SUBWF  00,F
0810:  MOVFF  1B,02
0814:  MOVFF  1C,01
0818:  BSF    02.7
081A:  MOVF   00,F
081C:  BZ    0830
081E:  BCF    FD8.0
0820:  MOVF   02,F
0822:  BNZ   0828
0824:  MOVF   01,F
0826:  BZ    0830
0828:  RRCF   02,F
082A:  RRCF   01,F
082C:  DECFSZ 00,F
082E:  BRA    081E
0830:  BTFSS  1B.7
0832:  BRA    083E
0834:  COMF   01,F
0836:  COMF   02,F
0838:  INCF   01,F
083A:  BTFSC  FD8.2
083C:  INCF   02,F
083E:  RETURN 0
0840:  MOVF   1A,W
0842:  BTFSC  FD8.2
0844:  BRA    0990
0846:  MOVWF  26
0848:  MOVF   1E,W
084A:  BTFSC  FD8.2
084C:  BRA    0990
084E:  SUBWF  26,F
0850:  BNC   085C
0852:  MOVLW  7F
0854:  ADDWF  26,F
0856:  BTFSC  FD8.0
0858:  BRA    0990
085A:  BRA    0868
085C:  MOVLW  81
085E:  SUBWF  26,F
0860:  BTFSS  FD8.0
0862:  BRA    0990
0864:  BTFSC  FD8.2
0866:  BRA    0990
0868:  MOVFF  26,00
086C:  CLRF   01
086E:  CLRF   02
0870:  CLRF   03
0872:  CLRF   25
0874:  MOVFF  1B,24
0878:  BSF    24.7
087A:  MOVFF  1C,23
087E:  MOVFF  1D,22
0882:  MOVLW  19
0884:  MOVWF  26
0886:  MOVF   21,W
0888:  SUBWF  22,F
088A:  BC    08A6
088C:  MOVLW  01
088E:  SUBWF  23,F
0890:  BC    08A6
0892:  SUBWF  24,F
0894:  BC    08A6
0896:  SUBWF  25,F
0898:  BC    08A6
089A:  INCF   25,F
089C:  INCF   24,F
089E:  INCF   23,F
08A0:  MOVF   21,W
08A2:  ADDWF  22,F
08A4:  BRA    08F6
08A6:  MOVF   20,W
08A8:  SUBWF  23,F
08AA:  BC    08D0
08AC:  MOVLW  01
08AE:  SUBWF  24,F
08B0:  BC    08D0
08B2:  SUBWF  25,F
08B4:  BC    08D0
08B6:  INCF   25,F
08B8:  INCF   24,F
08BA:  MOVF   20,W
08BC:  ADDWF  23,F
08BE:  MOVF   21,W
08C0:  ADDWF  22,F
08C2:  BNC   08F6
08C4:  INCF   23,F
08C6:  BNZ   08F6
08C8:  INCF   24,F
08CA:  BNZ   08F6
08CC:  INCF   25,F
08CE:  BRA    08F6
08D0:  MOVF   1F,W
08D2:  IORLW  80
08D4:  SUBWF  24,F
08D6:  BC    08F4
08D8:  MOVLW  01
08DA:  SUBWF  25,F
08DC:  BC    08F4
08DE:  INCF   25,F
08E0:  MOVF   1F,W
08E2:  IORLW  80
08E4:  ADDWF  24,F
08E6:  MOVF   20,W
08E8:  ADDWF  23,F
08EA:  BNC   08BE
08EC:  INCF   24,F
08EE:  BNZ   08BE
08F0:  INCF   25,F
08F2:  BRA    08BE
08F4:  BSF    03.0
08F6:  DECFSZ 26,F
08F8:  BRA    08FC
08FA:  BRA    0912
08FC:  BCF    FD8.0
08FE:  RLCF   22,F
0900:  RLCF   23,F
0902:  RLCF   24,F
0904:  RLCF   25,F
0906:  BCF    FD8.0
0908:  RLCF   03,F
090A:  RLCF   02,F
090C:  RLCF   01,F
090E:  RLCF   27,F
0910:  BRA    0886
0912:  BTFSS  27.0
0914:  BRA    0922
0916:  BCF    FD8.0
0918:  RRCF   01,F
091A:  RRCF   02,F
091C:  RRCF   03,F
091E:  RRCF   27,F
0920:  BRA    0926
0922:  DECF   00,F
0924:  BZ    0990
0926:  BTFSC  27.7
0928:  BRA    0966
092A:  BCF    FD8.0
092C:  RLCF   22,F
092E:  RLCF   23,F
0930:  RLCF   24,F
0932:  RLCF   25,F
0934:  MOVF   21,W
0936:  SUBWF  22,F
0938:  BC    0948
093A:  MOVLW  01
093C:  SUBWF  23,F
093E:  BC    0948
0940:  SUBWF  24,F
0942:  BC    0948
0944:  SUBWF  25,F
0946:  BNC   097C
0948:  MOVF   20,W
094A:  SUBWF  23,F
094C:  BC    0958
094E:  MOVLW  01
0950:  SUBWF  24,F
0952:  BC    0958
0954:  SUBWF  25,F
0956:  BNC   097C
0958:  MOVF   1F,W
095A:  IORLW  80
095C:  SUBWF  24,F
095E:  BC    0966
0960:  MOVLW  01
0962:  SUBWF  25,F
0964:  BNC   097C
0966:  INCF   03,F
0968:  BNZ   097C
096A:  INCF   02,F
096C:  BNZ   097C
096E:  INCF   01,F
0970:  BNZ   097C
0972:  INCF   00,F
0974:  BZ    0990
0976:  RRCF   01,F
0978:  RRCF   02,F
097A:  RRCF   03,F
097C:  MOVFF  1B,26
0980:  MOVF   1F,W
0982:  XORWF  26,F
0984:  BTFSS  26.7
0986:  BRA    098C
0988:  BSF    01.7
098A:  BRA    0998
098C:  BCF    01.7
098E:  BRA    0998
0990:  CLRF   00
0992:  CLRF   01
0994:  CLRF   02
0996:  CLRF   03
0998:  GOTO   0AB2 (RETURN)
....................  
.................... #list 
....................  
.................... #device ADC=10 
....................  
.................... #FUSES NOWDT                    //No Watch Dog Timer 
....................  
.................... #use delay(crystal=4000000) 
....................  
....................  
.................... #include <lcd.h> 
.................... #define _lcd_h_ 
.................... #include <math.h> 
.................... //////////////////////////////////////////////////////////////////////////// 
.................... ////        (C) Copyright 1996,2011 Custom Computer Services            //// 
.................... //// This source code may only be used by licensed users of the CCS C   //// 
.................... //// compiler.  This source code may only be distributed to other       //// 
.................... //// licensed users of the CCS C compiler.  No other use, reproduction  //// 
.................... //// or distribution is permitted without written permission.           //// 
.................... //// Derivative programs created using this software in object code     //// 
.................... //// form are not restricted in any way.                                //// 
.................... //////////////////////////////////////////////////////////////////////////// 
.................... ////                                                                    //// 
.................... //// History:                                                           //// 
.................... ////  * 9/20/2001 :  Improvments are made to sin/cos code.              //// 
.................... ////                 The code now is small, much faster,                //// 
.................... ////                 and more accurate.                                 //// 
.................... ////  * 2/21/2007 :  Compiler handles & operator differently and does   //// 
.................... ////                 not return generic (int8 *) so type cast is done   //// 
.................... ////  * 6/19/2010 :  Divisions by constants converted to multiplication //// 
.................... ////                 by its inverse to improve computation speed        //// 
.................... ////  * 1/21/2011 :  Constants used for double precision math updated   //// 
.................... ////                 Updated routines include 64 bit versions of cos,   //// 
.................... ////                 asin,atan,exp,log and dependant functions          //// 
.................... ////  * 1/31/2011 :  Optimized current 32-bit float routines for cos    //// 
.................... ////                 and log function                                   //// 
.................... ////  * 6/13/2011 :  Fixed PCD overload CEIL_FLOOR functions for values //// 
.................... ////                 greater then 10000000 and less then -10000000      //// 
.................... ////                                                                    //// 
.................... //////////////////////////////////////////////////////////////////////////// 
....................  
.................... #ifndef MATH_H 
.................... #define MATH_H 
....................  
.................... #ifdef PI 
.................... #undef  PI 
.................... #endif 
.................... #define PI     3.1415926535897932 
....................  
....................  
.................... #define SQRT2  1.4142135623730950 
....................  
.................... //float const ps[4] = {5.9304945, 21.125224, 8.9403076, 0.29730279}; 
.................... //float const qs[4] = {1.0000000, 15.035723, 17.764134, 2.4934718}; 
....................  
.................... ///////////////////////////// Round Functions ////////////////////////////// 
....................  
.................... float32 CEIL_FLOOR(float32 x, unsigned int8 n) 
.................... { 
....................    float32 y, res; 
....................    unsigned int16 l; 
....................    int1 s; 
....................  
....................    s = 0; 
....................    y = x; 
....................  
....................    if (x < 0) 
....................    { 
....................       s = 1; 
....................       y = -y; 
....................    } 
....................  
....................    if (y <= 32768.0) 
....................       res = (float32)(unsigned int16)y; 
....................  
....................  else if (y < 10000000.0) 
....................    {  
....................       l = (unsigned int16)(y*0.000030517578125); 
....................       y = 32768.0*(y*0.000030517578125 - (float32)l); 
....................       res = 32768.0*(float32)l; 
....................       res += (float32)(unsigned int16)y; 
....................    } 
....................  
....................  else 
....................   res = y; 
....................  
....................  y = y - (float32)(unsigned int16)y; 
....................  
....................  if (s) 
....................   res = -res; 
....................  
....................  if (y != 0) 
....................  { 
....................   if (s == 1 && n == 0) 
....................    res -= 1.0; 
....................  
....................   if (s == 0 && n == 1) 
....................    res += 1.0; 
....................  } 
....................  if (x == 0) 
....................     res = 0; 
....................  
....................  return (res); 
.................... } 
....................  
.................... // Overloaded Functions to take care for new Data types in PCD 
.................... // Overloaded function CEIL_FLOOR() for data type - Float48 
.................... #if defined(__PCD__) 
.................... float48 CEIL_FLOOR(float48 x, unsigned int8 n) 
.................... { 
....................    float48 y, res; 
....................    unsigned int32 l; 
....................    int1 s; 
....................  
....................    s = 0; 
....................    y = x; 
....................  
....................    if (x < 0) 
....................    { 
....................       s = 1; 
....................       y = -y; 
....................    } 
....................  
....................    if (y <= 32768.0) 
....................       res = (float48)(unsigned int16)y; 
....................  
....................    else if (y < 549755813888.0) 
....................    { 
....................       l = (unsigned int32)(y*0.000030517578125); 
....................       y = 32768.0*(y*0.000030517578125 - (float48)l); 
....................       res = 32768.0*(float48)l; 
....................       res += (float48)(unsigned int16)y; 
....................    } 
....................    else 
....................    {   
....................       res = y; 
....................       y = 0.0; 
....................    } 
....................     
....................    if(y != 0) 
....................       y = y - (float48)(unsigned int16)y; 
....................  
....................    if (s) 
....................       res = -res; 
....................  
....................    if (y != 0) 
....................    { 
....................       if (s == 1 && n == 0) 
....................          res -= 1.0; 
....................  
....................       if (s == 0 && n == 1) 
....................          res += 1.0; 
....................    } 
....................    if (x == 0) 
....................       res = 0; 
....................  
....................    return (res); 
.................... } 
....................  
....................  
.................... // Overloaded function CEIL_FLOOR() for data type - Float64 
.................... float64 CEIL_FLOOR(float64 x, unsigned int8 n) 
.................... { 
....................    float64 y, res; 
....................    int64 l; 
....................    int1 s; 
....................  
....................    s = 0; 
....................    y = x; 
....................  
....................    if (x < 0) 
....................    { 
....................       s = 1; 
....................       y = -y; 
....................    } 
....................  
....................    if (y <= 32768.0) 
....................       res = (float64)(unsigned int16)y; 
....................    else if (y < 4503599627370496.0) 
....................    { 
....................       l = (int64)(y*0.000030517578125); 
....................       y = 32768.0*(y*0.000030517578125 - (float64)l); 
....................       res = 32768.0*(float64)l; 
....................       res += (float64)(unsigned int16)y; 
....................    } 
....................    else 
....................    { 
....................       res = y; 
....................       y = 0.0; 
....................    } 
....................     
....................    if(y != 0) 
....................       y = y - (float64)(unsigned int16)y; 
....................  
....................    if (s) 
....................       res = -res; 
....................  
....................    if (y != 0) 
....................    { 
....................       if (s == 1 && n == 0) 
....................          res -= 1.0; 
....................  
....................       if (s == 0 && n == 1) 
....................          res += 1.0; 
....................    } 
....................     
....................    if (x == 0) 
....................       res = 0; 
....................  
....................    return (res); 
.................... } 
.................... #endif 
....................  
.................... //////////////////////////////////////////////////////////////////////////// 
.................... //   float floor(float x) 
.................... //////////////////////////////////////////////////////////////////////////// 
.................... // Description : rounds down the number x. 
.................... // Date : N/A 
.................... // 
.................... float32 floor(float32 x) 
.................... { 
....................    return CEIL_FLOOR(x,0); 
.................... } 
.................... // Following 2 functions are overloaded functions of floor() for PCD 
.................... // Overloaded function floor() for data type - Float48 
.................... #if defined(__PCD__) 
.................... float48 floor(float48 x) 
.................... { 
....................    return CEIL_FLOOR(x, 0); 
.................... } 
....................  
.................... // Overloaded function floor() for data type - Float64 
.................... float64 floor(float64 x) 
.................... { 
....................    return CEIL_FLOOR(x, 0); 
.................... } 
.................... #endif 
....................  
....................  
.................... //////////////////////////////////////////////////////////////////////////// 
.................... //   float ceil(float x) 
.................... //////////////////////////////////////////////////////////////////////////// 
.................... // Description : rounds up the number x. 
.................... // Date : N/A 
.................... // 
.................... float32 ceil(float32 x) 
.................... { 
....................    return CEIL_FLOOR(x, 1); 
.................... } 
.................... // Following 2 functions are overloaded functions of ceil() for PCD 
.................... // Overloaded function ceil() for data type - Float48 
.................... #if defined(__PCD__) 
.................... float48 ceil(float48 x) 
.................... { 
....................    return CEIL_FLOOR(x, 1); 
.................... } 
....................  
.................... // Overloaded function ceil() for data type - Float64 
.................... float64 ceil(float64 x) 
.................... { 
....................    return CEIL_FLOOR(x, 1); 
.................... } 
.................... #endif 
....................  
....................  //////////////////////////////////////////////////////////////////////////// 
.................... //   float fabs(float x) 
.................... //////////////////////////////////////////////////////////////////////////// 
.................... // Description : Computes the absolute value of floating point number x 
.................... // Returns : returns the absolute value of x 
.................... // Date : N/A 
.................... // 
.................... #define fabs abs 
....................  
.................... //////////////////////////////////////////////////////////////////////////// 
.................... //   float fmod(float x) 
.................... //////////////////////////////////////////////////////////////////////////// 
.................... // Description : Computes the floating point remainder of x/y 
.................... // Returns : returns the value of x= i*y, for some integer i such that, if y 
.................... // is non zero, the result has the same isgn of x na dmagnitude less than the 
.................... // magnitude of y. If y is zero then a domain error occurs. 
.................... // Date : N/A 
.................... // 
....................  
.................... float fmod(float32 x,float32 y) 
.................... { 
....................    float32 i; 
....................    if (y!=0.0) 
....................    { 
....................       i=(x/y < 0.0)? ceil(x/y): floor(x/y); 
....................       return(x-(i*y)); 
....................    } 
....................    else 
....................    { 
....................    #ifdef _ERRNO 
....................    { 
....................       errno=EDOM; 
....................    } 
....................    #endif 
....................    } 
.................... } 
.................... //Overloaded function for fmod() for PCD 
.................... // Overloaded function fmod() for data type - Float48 
.................... #if defined(__PCD__) 
.................... float48 fmod(float48 x,float48 y) 
.................... { 
....................    float48 i; 
....................    if (y!=0.0) 
....................    { 
....................       i=(x/y < 0.0)? ceil(x/y): floor(x/y); 
....................       return(x-(i*y)); 
....................    } 
....................    else 
....................    { 
....................    #ifdef _ERRNO 
....................    { 
....................       errno=EDOM; 
....................    } 
....................    #endif 
....................    } 
.................... } 
.................... // Overloaded function fmod() for data type - Float64 
.................... float64 fmod(float64 x,float64 y) 
.................... { 
....................    float64 i; 
....................    if (y!=0.0) 
....................    { 
....................       i=(x/y < 0.0)? ceil(x/y): floor(x/y); 
....................       return(x-(i*y)); 
....................    } 
....................    else 
....................    { 
....................    #ifdef _ERRNO 
....................    { 
....................       errno=EDOM; 
....................    } 
....................    #endif 
....................    } 
.................... } 
.................... #endif 
.................... //////////////////// Exponential and logarithmic functions //////////////////// 
.................... //////////////////////////////////////////////////////////////////////////// 
.................... //   float exp(float x) 
.................... //////////////////////////////////////////////////////////////////////////// 
.................... // Description : returns the value (e^x) 
.................... // Date : N/A 
.................... // 
.................... #define LN2 0.6931471805599453 
.................... #define LN2_INV 1.4426950408889634073 
....................  
.................... float const pe[6] = {0.000207455774, 0.00127100575, 0.00965065093, 
....................                      0.0554965651,  0.240227138,  0.693147172}; 
....................  
....................  
.................... float32 exp(float32 x) 
.................... { 
....................    float32 y, res, r; 
....................    #if defined(__PCD__) 
....................    int8 data1; 
....................    #endif 
....................    signed int8 n; 
....................    int1 s; 
....................    #ifdef _ERRNO 
....................    if(x > 88.722838) 
....................    { 
....................       errno=ERANGE; 
....................       return(0); 
....................    } 
....................    #endif 
....................    n = (signed int16)(x*LN2_INV); 
....................    s = 0; 
....................    y = x; 
....................  
....................    if (x < 0) 
....................    { 
....................       s = 1; 
....................       n = -n; 
....................       y = -y; 
....................    } 
....................  
....................    res = 0.0; 
.................... #if !defined(__PCD__) 
....................    *((unsigned int8 *)(&res)) = n + 0x7F; 
.................... #endif 
....................  
.................... #if defined(__PCD__)  // Takes care of IEEE format for PCD 
....................    data1 = n+0x7F; 
....................    if(bit_test(data1,0)) 
....................    bit_set(*(((unsigned int8 *)(&res)+2)),7); 
....................    rotate_right(&data1,1); 
....................    bit_clear(data1,7); 
....................    *(((unsigned int8 *)(&res)+3)) = data1; 
.................... #endif 
....................  
....................    y = y*LN2_INV - (float32)n; 
....................  
....................    r = pe[0]*y + pe[1]; 
....................    r = r*y + pe[2]; 
....................    r = r*y + pe[3]; 
....................    r = r*y + pe[4]; 
....................    r = r*y + pe[5]; 
....................  
....................    res = res*(1.0 + y*r); 
....................  
....................    if (s) 
....................       res = 1.0/res; 
....................    return(res); 
.................... } 
....................  
....................  
.................... //Overloaded function for exp() for PCD 
.................... // Overloaded function exp() for data type - Float48 
.................... #if defined(__PCD__) 
.................... float48 exp(float48 x) 
.................... { 
....................    float48 y, res, r; 
....................    int8 data1; 
....................    signed int8 n; 
....................    int1 s; 
....................    #ifdef _ERRNO 
....................    if(x > 88.722838) 
....................    { 
....................       errno=ERANGE; 
....................       return(0); 
....................    } 
....................    #endif 
....................    n = (signed int16)(x*LN2_INV); 
....................    s = 0; 
....................    y = x; 
....................  
....................    if (x < 0) 
....................    { 
....................       s = 1; 
....................       n = -n; 
....................       y = -y; 
....................    } 
....................  
....................    res = 0.0; 
....................  
....................    data1 = n+0x7F; 
....................    if(bit_test(data1,0)) 
....................    bit_set(*(((unsigned int8 *)(&res)+4)),7); 
....................    rotate_right(&data1,1); 
....................    bit_clear(data1,7); 
....................    *(((unsigned int8 *)(&res)+5)) = data1; 
....................  
....................    y = y*LN2_INV - (float48)n; 
....................  
....................    r = pe[0]*y + pe[1]; 
....................    r = r*y + pe[2]; 
....................    r = r*y + pe[3]; 
....................    r = r*y + pe[4]; 
....................    r = r*y + pe[5]; 
....................  
....................    res = res*(1.0 + y*r); 
....................  
....................    if (s) 
....................       res = 1.0/res; 
....................    return(res); 
.................... } 
....................  
.................... // Overloaded function exp() for data type - Float64 
.................... float64 const pe_64[12] ={9.30741400474913e-011,-4.28655416283316e-011, 
....................                           8.71486547014137e-009,9.84458531538385e-008, 
....................                           1.32588296983536e-006,1.52489283823016e-005, 
....................                           0.000154037598423921,0.00133335487036216, 
....................                           0.00961812936407326,0.0555041086222122, 
....................                           0.240226506962827,0.693147180559823}; 
....................  
.................... float64 exp(float64 x) 
.................... { 
....................    float64 y, res, r; 
....................    unsigned int16 data1, data2; 
....................    unsigned int16 *p; 
....................    signed int16 n; 
....................    int1 s; 
....................    #ifdef _ERRNO 
....................    if(x > 709.7827128) 
....................    { 
....................       errno=ERANGE; 
....................       return(0); 
....................    } 
....................    #endif 
....................    y = x*LN2_INV; 
....................    n = (signed int16)y; 
....................    s = 0; 
....................    y = x; 
....................  
....................    if (x < 0) 
....................    { 
....................       s = 1; 
....................       n = -n; 
....................       y = -y; 
....................    } 
....................  
....................    res = 0.0; 
....................  
.................... #if !defined(__PCD__) 
....................    *((unsigned int16 *)(&res)) = n + 0x7F; 
.................... #endif 
....................    p= (((unsigned int16 *)(&res))+3); 
....................    data1 = *p; 
....................    data2 = *p;    
....................    data1 = n + 0x3FF; 
....................    data1 = data1 <<4; 
....................    if(bit_test(data2,15)) 
....................    bit_set(data1,15); 
....................    data2 = data2 & 0x000F; 
....................    data1 ^= data2; 
....................  
....................    *(((unsigned int16 *)(&res)+3)) = data1; 
....................  
....................  
....................    y = y*LN2_INV - (float64)n; 
....................  
....................    r = pe_64[0]*y + pe_64[1]; 
....................    r = r*y + pe_64[2]; 
....................    r = r*y + pe_64[3]; 
....................    r = r*y + pe_64[4]; 
....................    r = r*y + pe_64[5]; 
....................    r = r*y + pe_64[6]; 
....................    r = r*y + pe_64[7]; 
....................    r = r*y + pe_64[8]; 
....................    r = r*y + pe_64[9]; 
....................    r = r*y + pe_64[10]; 
....................    r = r*y + pe_64[11]; 
....................     
....................    res = res*(1.0 + y*r); 
....................  
....................    if (s) 
....................       res = 1.0/res; 
....................    return(res); 
.................... } 
.................... #ENDIF 
....................  
....................  
.................... /************************************************************/ 
....................  
.................... float32 const pl[4] = {-1.080310025160955, 1.999999947089217}; 
.................... float32 const ql[4] = {0.091284365719509, -0.873491916557671}; 
....................  
.................... //////////////////////////////////////////////////////////////////////////// 
.................... //   float log(float x) 
.................... //////////////////////////////////////////////////////////////////////////// 
.................... // Description : returns the the natural log of x 
.................... // Date : N/A 
.................... // 
.................... float32 log(float32 x) 
.................... { 
....................    float32 y, res, r, y2; 
....................    #if defined(__PCD__) 
....................    unsigned int8  data1,data2; 
....................    #endif 
....................    signed int8 n; 
....................    #ifdef _ERRNO 
....................    if(x <0) 
....................    { 
....................       errno=EDOM; 
....................    } 
....................    if(x ==0) 
....................    { 
....................       errno=ERANGE; 
....................       return(0); 
....................    } 
....................    #endif 
....................    y = x; 
....................  
....................    if (y != 1.0) 
....................    { 
.................... #if !defined(__PCD__) 
....................     *((unsigned int8 *)(&y)) = 0x7E;  
.................... #endif 
....................  
.................... #if defined(__PCD__) // Takes care of IEEE format 
....................    data2 = *(((unsigned int8 *)(&y))+3); 
....................    *(((unsigned int8 *)(&y))+3) = 0x3F; 
....................    data1 = *(((unsigned int8 *)(&y))+2); 
....................    bit_clear(data1,7); 
....................    *(((unsigned int8 *)(&y))+2) = data1; 
....................    if(bit_test(data2,7)) 
....................      bit_set(*(((unsigned int8 *)(&y))+3),7); 
.................... #endif 
....................  
....................       y = (y - 1.0)/(y + 1.0); 
....................  
....................       y2=y*y; 
....................  
....................       res = pl[0]*y2 + pl[1]; 
....................  
....................       r = ql[0]*y2 + ql[1]; 
....................       r = r*y2 + 1.0; 
....................  
....................       res = y*res/r; 
.................... #if !defined(__PCD__) 
....................       n = *((unsigned int8 *)(&x)) - 0x7E; 
.................... #endif 
.................... #if defined(__PCD__)  
....................     data1 = *(((unsigned int8 *)(&x)+3)); 
....................     rotate_left(&data1,1); 
....................     data2 = *(((unsigned int8 *)(&x)+2)); 
....................     if(bit_test (data2,7)) 
....................       bit_set(data1,0); 
....................     n = data1 - 0x7E; 
.................... #endif 
....................  
....................       if (n<0)  
....................          r = -(float32)-n; 
....................       else 
....................          r = (float32)n; 
....................  
....................       res += r*LN2; 
....................    } 
....................  
....................    else 
....................       res = 0.0; 
....................  
....................    return(res); 
.................... } 
....................  
.................... //Overloaded function for log() for PCD 
.................... // Overloaded function log() for data type - Float48 
.................... #if defined(__PCD__) 
.................... // Overloaded function log() for data type - float64 
.................... float64 const pl_64[4] = {-0.145694052150681, 1.365485300000370, 
....................                           -3.120535668274329, 2.000000000000000}; 
....................  
.................... float64 const ql_64[4] = {0.006047500465908, -0.208298281937234, 
....................                           1.113943039156721, -1.893601167470470}; 
....................  
.................... float48 log(float48 x) 
.................... { 
....................    float48 y, res, r, y2; 
....................    unsigned int8  data1,data2; 
....................    signed int8 n; 
.................... #ifdef _ERRNO 
....................    if(x <0) 
....................    { 
....................       errno=EDOM; 
....................    } 
....................    if(x ==0) 
....................    { 
....................       errno=ERANGE; 
....................       return(0); 
....................    } 
.................... #endif 
....................    y = x; 
....................  
....................    if (y != 1.0) 
....................    { 
....................  
.................... #if !defined(__PCD__) 
....................       *((unsigned int8 *)(&y)) = 0x7E;  
.................... #endif 
....................       data2 = *(((unsigned int8 *)(&y))+5); 
....................       *(((unsigned int8 *)(&y))+5) = 0x3F; 
....................       data1 = *(((unsigned int8 *)(&y))+4); 
....................       bit_clear(data1,7); 
....................       *(((unsigned int8 *)(&y))+4) = data1; 
....................  
....................       if(bit_test(data2,7)) 
....................       bit_set(*(((unsigned int8 *)(&y))+4),7); 
....................       y = (y - 1.0)/(y + 1.0); 
....................  
....................       y2=y*y; 
....................  
....................       res = pl_64[0]*y2 + pl_64[1]; 
....................       res = res*y2 + pl_64[2]; 
....................       res = res*y2 + pl_64[3]; 
....................  
....................       r = ql_64[0]*y2 + ql_64[1]; 
....................       r = r*y2 + ql_64[2]; 
....................       r = r*y2 + ql_64[3]; 
....................       r = r*y2 + 1.0;  
....................       res = y*res/r; 
....................  
....................       data1 = *(((unsigned int8 *)(&x)+5)); 
....................       rotate_left(&data1,1); 
....................       data2 = *(((unsigned int8 *)(&x)+4)); 
....................       if(bit_test (data2,7)) 
....................       bit_set(data1,0); 
....................        
....................       n = data1 - 0x7E; 
....................  
....................       if (n<0) 
....................       r = -(float48)-n; 
....................       else 
....................       r = (float48)n; 
....................  
....................       res += r*LN2; 
....................    } 
....................  
....................    else 
....................    res = 0.0; 
....................  
....................    return(res); 
.................... } 
....................  
.................... float64 log(float64 x) 
.................... { 
....................    float64 y, res, r, y2; 
....................    unsigned int16  data1,data2; 
....................    unsigned int16 *p; 
....................    signed int16 n; 
....................    #ifdef _ERRNO 
....................    if(x <0) 
....................    { 
....................       errno=EDOM; 
....................    } 
....................    if(x ==0) 
....................    { 
....................       errno=ERANGE; 
....................       return(0); 
....................    } 
....................    #endif 
....................    y = x; 
....................  
....................    if (y != 1.0) 
....................    { 
....................    #if !defined(__PCD__) 
....................        *((unsigned int8 *)(&y)) = 0x7E;  
....................    #endif 
....................       p= (((unsigned int16 *)(&y))+3); 
....................       data1 = *p; 
....................       data2 = *p; 
....................       data1 = 0x3FE; 
....................       data1 = data1 <<4; 
....................       if(bit_test (data2,15)) 
....................          bit_set(data1,15); 
....................       data2 = data2 & 0x000F; 
....................       data1 ^=data2; 
....................  
....................       *p = data1; 
....................  
....................       y = (y - 1.0)/(y + 1.0); 
....................  
....................       y2=y*y; 
....................  
....................       res = pl_64[0]*y2 + pl_64[1]; 
....................       res = res*y2 + pl_64[2]; 
....................       res = res*y2 + pl_64[3]; 
....................  
....................       r = ql_64[0]*y2 + ql_64[1]; 
....................       r = r*y2 + ql_64[2]; 
....................       r = r*y2 + ql_64[3]; 
....................       r = r*y2 + 1.0; 
....................  
....................       res = y*res/r; 
....................   
....................       p= (((unsigned int16 *)(&x))+3); 
....................       data1 = *p; 
....................       bit_clear(data1,15); 
....................       data1 = data1 >>4;     
....................       n = data1 - 0x3FE; 
....................  
....................  
....................       if (n<0) 
....................          r = -(float64)-n; 
....................       else 
....................          r = (float64)n; 
....................  
....................       res += r*LN2; 
....................    } 
....................  
....................    else 
....................       res = 0.0; 
....................  
....................    return(res); 
.................... } 
.................... #endif 
....................  
....................  
.................... #define LN10 2.3025850929940456 
.................... #define LN10_INV 0.4342944819032518276 
....................  
.................... //////////////////////////////////////////////////////////////////////////// 
.................... //   float log10(float x) 
.................... //////////////////////////////////////////////////////////////////////////// 
.................... // Description : returns the the log base 10 of x 
.................... // Date : N/A 
.................... // 
.................... float32 log10(float32 x) 
.................... { 
....................    float32 r; 
....................  
....................    r = log(x); 
....................    r = r*LN10_INV; 
....................    return(r); 
.................... } 
....................  
.................... //Overloaded functions for log10() for PCD 
.................... // Overloaded function log10() for data type - Float48 
.................... #if defined(__PCD__) 
.................... float48 log10(float48 x) 
.................... { 
....................    float48 r; 
....................  
....................    r = log(x); 
....................    r = r*LN10_INV; 
....................    return(r); 
.................... } 
....................  
.................... // Overloaded function log10() for data type - Float64 
.................... float64 log10(float64 x) 
.................... { 
....................    float64 r; 
....................  
....................    r = log(x); 
....................    r = r*LN10_INV; 
....................    return(r); 
.................... } 
.................... #endif 
.................... //////////////////////////////////////////////////////////////////////////// 
.................... //   float modf(float x) 
.................... //////////////////////////////////////////////////////////////////////////// 
.................... // Description :breaks the argument value int integral and fractional parts, 
.................... // ach of which have the same sign as the argument.  It stores the integral part 
.................... // as a float in the object pointed to by the iptr 
.................... // Returns : returns the signed fractional part of value. 
.................... // Date : N/A 
.................... // 
....................  
.................... float32 modf(float32 value,float32 *iptr) 
.................... { 
....................    *iptr=(value < 0.0)? ceil(value): floor(value); 
....................    return(value - *iptr); 
.................... } 
.................... //Overloaded functions for modf() for PCD 
.................... // Overloaded function modf() for data type - Float48 
.................... #if defined(__PCD__) 
.................... float48 modf(float48 value,float48 *iptr) 
.................... { 
....................    *iptr=(value < 0.0)? ceil(value): floor(value); 
....................    return(value - *iptr); 
.................... } 
.................... // Overloaded function modf() for data type - Float64 
.................... float64 modf(float64 value,float64 *iptr) 
.................... { 
....................    *iptr=(value < 0.0)? ceil(value): floor(value); 
....................    return(value - *iptr); 
.................... } 
.................... #endif 
....................  
.................... //////////////////////////////////////////////////////////////////////////// 
.................... //   float pwr(float x,float y) 
.................... //////////////////////////////////////////////////////////////////////////// 
.................... // Description : returns the value (x^y) 
.................... // Date : N/A 
.................... // Note : 0 is returned when the function will generate an imaginary number 
.................... // 
.................... float32 pwr(float32 x,float32 y) 
.................... { 
....................    if(0 > x && fmod(y, 1) == 0) { 
....................       if(fmod(y, 2) == 0) { 
....................          return (exp(log(-x) * y)); 
....................       } else { 
....................          return (-exp(log(-x) * y)); 
....................       } 
....................    } else if(0 > x && fmod(y, 1) != 0) { 
....................       return 0; 
....................    } else { 
....................       if(x != 0 || 0 >= y) { 
....................          return (exp(log(x) * y)); 
....................       } 
....................    } 
.................... } 
.................... //Overloaded functions for pwr() for PCD 
.................... // Overloaded function pwr() for data type - Float48 
.................... #if defined(__PCD__) 
.................... float48 pwr(float48 x,float48 y) 
.................... { 
....................    if(0 > x && fmod(y, 1) == 0) { 
....................       if(fmod(y, 2) == 0) { 
....................          return (exp(log(-x) * y)); 
....................       } else { 
....................          return (-exp(log(-x) * y)); 
....................       } 
....................    } else if(0 > x && fmod(y, 1) != 0) { 
....................       return 0; 
....................    } else { 
....................       if(x != 0 || 0 >= y) { 
....................          return (exp(log(x) * y)); 
....................       } 
....................    } 
.................... } 
.................... // Overloaded function pwr() for data type - Float64 
.................... float64 pwr(float64 x,float64 y) 
.................... { 
....................    if(0 > x && fmod(y, 1) == 0) { 
....................       if(fmod(y, 2) == 0) { 
....................          return (exp(log(-x) * y)); 
....................       } else { 
....................          return (-exp(log(-x) * y)); 
....................       } 
....................    } else if(0 > x && fmod(y, 1) != 0) { 
....................       return 0; 
....................    } else { 
....................       if(x != 0 || 0 >= y) { 
....................          return (exp(log(x) * y)); 
....................       } 
....................    } 
.................... } 
.................... #endif 
....................  
.................... //////////////////// Power functions //////////////////// 
....................  
.................... //////////////////////////////////////////////////////////////////////////// 
.................... //   float pow(float x,float y) 
.................... //////////////////////////////////////////////////////////////////////////// 
.................... // Description : returns the value (x^y) 
.................... // Date : N/A 
.................... // Note : 0 is returned when the function will generate an imaginary number 
.................... // 
.................... float32 pow(float32 x,float32 y) 
.................... { 
....................    if(0 > x && fmod(y, 1) == 0) { 
....................       if(fmod(y, 2) == 0) { 
....................          return (exp(log(-x) * y)); 
....................       } else { 
....................          return (-exp(log(-x) * y)); 
....................       } 
....................    } else if(0 > x && fmod(y, 1) != 0) { 
....................       return 0; 
....................    } else { 
....................       if(x != 0 || 0 >= y) { 
....................          return (exp(log(x) * y)); 
....................       } 
....................    } 
.................... } 
.................... //Overloaded functions for pow() for PCD 
.................... // Overloaded function for pow() data type - Float48 
.................... #if defined(__PCD__) 
.................... float48 pow(float48 x,float48 y) 
.................... { 
....................    if(0 > x && fmod(y, 1) == 0) { 
....................       if(fmod(y, 2) == 0) { 
....................          return (exp(log(-x) * y)); 
....................       } else { 
....................          return (-exp(log(-x) * y)); 
....................       } 
....................    } else if(0 > x && fmod(y, 1) != 0) { 
....................       return 0; 
....................    } else { 
....................       if(x != 0 || 0 >= y) { 
....................          return (exp(log(x) * y)); 
....................       } 
....................    } 
.................... } 
....................  
.................... // Overloaded function pow() for data type - Float64 
.................... float64 pow(float64 x,float64 y) 
.................... { 
....................    if(0 > x && fmod(y, 1) == 0) { 
....................       if(fmod(y, 2) == 0) { 
....................          return (exp(log(-x) * y)); 
....................       } else { 
....................          return (-exp(log(-x) * y)); 
....................       } 
....................    } else if(0 > x && fmod(y, 1) != 0) { 
....................       return 0; 
....................    } else { 
....................       if(x != 0 || 0 >= y) { 
....................          return (exp(log(x) * y)); 
....................       } 
....................    } 
.................... } 
.................... #endif 
....................  
.................... //////////////////////////////////////////////////////////////////////////// 
.................... //   float sqrt(float x) 
.................... //////////////////////////////////////////////////////////////////////////// 
.................... // Description : returns the square root of x 
.................... // Date : N/A 
.................... // 
.................... float32 sqrt(float32 x) 
.................... { 
....................    float32 y, res; 
....................    #if defined(__PCD__) 
....................    unsigned int16 data1,data2; 
....................    #endif 
....................    unsigned int8 *p; 
....................  
....................    #ifdef _ERRNO 
....................    if(x < 0) 
....................    { 
....................       errno=EDOM; 
....................    } 
....................    #endif 
....................  
....................    if( x<=0.0) 
....................       return(0.0); 
....................  
....................    y=x; 
....................     
....................    #if !defined(__PCD__) 
....................     p=&y; 
....................    (*p)=(unsigned int8)((((unsigned int16)(*p)) + 127) >> 1); 
....................    #endif 
....................     
....................    #if defined(__PCD__) 
....................     p = (((unsigned int8 *)(&y))+3); 
....................     data1 = *(((unsigned int8 *)(&y))+3); 
....................     data2 = *(((unsigned int8 *)(&y))+2); 
....................     rotate_left(&data1,1);     
....................     if(bit_test(data2,7))     
....................        bit_set(data1,0);     
....................     data1 = ((data1+127) >>1); 
....................     bit_clear(data2,7); 
....................     if(bit_test(data1,0)) 
....................        bit_set(data2,7); 
....................     data1 = data1 >>1; 
....................     *(((unsigned int8 *)(&y))+3) = data1; 
....................     *(((unsigned int8 *)(&y))+2) = data2; 
....................      
....................   #endif 
....................  
....................    do { 
....................       res=y; 
....................       y+=(x/y); 
....................  
....................       #if !defined(__PCD__) 
....................      (*p)--; 
....................    #endif 
....................     
....................    #if defined(__PCD__) 
....................     data1 = *(((unsigned int8 *)(&y))+3); 
....................     data2 = *(((unsigned int8 *)(&y))+2); 
....................     rotate_left(&data1,1); 
....................     if(bit_test(data2,7)) 
....................        bit_set(data1,0);     
....................     data1--; 
....................     bit_clear(data2,7); 
....................     if(bit_test(data1,0)) 
....................        bit_set(data2,7); 
....................     data1 = data1 >>1; 
....................     *(((unsigned int8 *)(&y))+3) = data1; 
....................     *(((unsigned int8 *)(&y))+2) = data2; 
....................      
....................   #endif 
....................    } while(res != y); 
....................  
....................    return(res); 
.................... } 
.................... //Overloaded functions for sqrt() for PCD 
.................... // Overloaded function sqrt() for data type - Float48 
.................... #if defined(__PCD__) 
.................... float48 sqrt(float48 x) 
.................... { 
....................    float48 y, res; 
....................    unsigned int16 data1,data2; 
....................    unsigned int8 *p; 
....................  
....................    #ifdef _ERRNO 
....................    if(x < 0) 
....................    { 
....................       errno=EDOM; 
....................    } 
....................    #endif 
....................  
....................    if( x<=0.0) 
....................       return(0.0); 
....................  
....................    y=x; 
....................     
....................    #if !defined(__PCD__) 
....................     p=&y; 
....................    (*p)=(unsigned int8)((((unsigned int16)(*p)) + 127) >> 1); 
....................    #endif 
....................     
....................    #if defined(__PCD__) 
....................     p = (((unsigned int8 *)(&y))+5); 
....................     data1 = *(((unsigned int8 *)(&y))+5); 
....................     data2 = *(((unsigned int8 *)(&y))+4); 
....................     rotate_left(&data1,1); 
....................     if(bit_test(data2,7)) 
....................        bit_set(data1,0);     
....................     data1 = ((data1+127) >>1); 
....................     bit_clear(data2,7); 
....................     if(bit_test(data1,0)) 
....................        bit_set(data2,7); 
....................     data1 = data1 >>1; 
....................     *(((unsigned int8 *)(&y))+5) = data1; 
....................     *(((unsigned int8 *)(&y))+4) = data2; 
....................      
....................   #endif 
....................  
....................    do { 
....................       res=y; 
....................       y+=(x/y); 
....................  
....................       #if !defined(__PCD__) 
....................      (*p)--; 
....................    #endif 
....................     
....................     data1 = *(((unsigned int8 *)(&y))+5); 
....................     data2 = *(((unsigned int8 *)(&y))+4); 
....................     rotate_left(&data1,1); 
....................     if(bit_test(data2,7)) 
....................        bit_set(data1,0);     
....................     data1--; 
....................     bit_clear(data2,7); 
....................     if(bit_test(data1,0)) 
....................        bit_set(data2,7); 
....................     data1 = data1 >>1; 
....................     *(((unsigned int8 *)(&y))+5) = data1; 
....................     *(((unsigned int8 *)(&y))+4) = data2; 
....................      
....................    } while(res != y); 
....................  
....................    return(res); 
.................... } 
....................  
.................... // Overloaded function sqrt() for data type - Float64 
.................... float64 sqrt(float64 x) 
.................... { 
....................    float64 y, res; 
....................    unsigned int16 *p; 
....................    unsigned int16 temp1,temp2; 
....................  
....................    #ifdef _ERRNO 
....................    if(x < 0) 
....................    { 
....................       errno=EDOM; 
....................    } 
....................    #endif 
....................  
....................    if( x<=0.0) 
....................       return(0.0); 
....................  
....................    y=x; 
....................    p= (((unsigned int16 *)(&y))+3); 
....................    temp1 = *p; 
....................    temp2 = *p; 
....................    bit_clear(temp1,15); 
....................    temp1 = (temp1>>4)+1023; 
....................    temp1 = temp1 >> 1; 
....................    temp1 = (temp1<<4) & 0xFFF0; 
....................    if(bit_test(temp2,15)) 
....................       bit_set(temp1,15); 
....................    temp2 = temp2 & 0x000F; 
....................    temp1 ^= temp2; 
....................     
....................    (*p) = temp1; 
....................     
....................    do { 
....................       res=y; 
....................       y+=(x/y); 
....................      temp1 = *p; 
....................      temp2 = *p; 
....................      bit_clear(temp1,15); 
....................      temp1 = (temp1>>4); 
....................      temp1--; 
....................      temp1 = (temp1<<4) & 0xFFF0; 
....................      if(bit_test(temp2,15)) 
....................         bit_set(temp1,15); 
....................      temp2 = temp2 & 0x000F; 
....................      temp1 ^= temp2; 
....................      (*p) = temp1; 
....................  
....................    } while(res != y); 
....................  
....................    return(res); 
.................... } 
.................... #endif 
....................  
.................... ////////////////////////////// Trig Functions ////////////////////////////// 
.................... #ifdef PI_DIV_BY_TWO_INV 
.................... #undef PI_DIV_BY_TWO_INV 
.................... #endif 
.................... #define PI_DIV_BY_TWO_INV 0.63661977236758134 
.................... #ifdef PI_DIV_BY_TWO 
.................... #undef PI_DIV_BY_TWO 
.................... #endif 
.................... #define PI_DIV_BY_TWO   1.5707963267948966 
.................... #ifdef TWOBYPI 
.................... #undef TWOBYPI 
.................... #endif 
.................... #define TWOBYPI          0.6366197723675813 
....................  
.................... //////////////////////////////////////////////////////////////////////////// 
.................... //   float cos(float x) 
.................... //////////////////////////////////////////////////////////////////////////// 
.................... // Description : returns the cosine value of the angle x, which is in radian 
.................... // Date : 9/20/2001 
.................... // 
.................... float32 cos(float32 x) 
.................... { 
....................    float32 y, t, t2 = 1.0; 
....................    unsigned int8 quad, i; 
....................    float32 frac; 
....................    float32 p[5] = {                    //by the series definition for cosine 
....................       -0.49999999456337096,            // sum ( ( (-1)^n * x^2n )/(2n)! ) 
....................        0.04166663896921267, 
....................       -0.00138883894522527, 
....................        0.00002476138231734, 
....................       -0.00000026070414770 
....................       //-0.00000000001147, 
....................       // 0.00000000000005 
....................    }; 
....................  
....................    if (x < 0) x = -x;                  // absolute value of input 
....................  
....................    quad = (unsigned int8)(x * PI_DIV_BY_TWO_INV);    // quadrant 
....................    frac = (x * PI_DIV_BY_TWO_INV) - quad;  // fractional part of input 
....................    quad = quad % 4;                    // quadrant (0 to 3) 
....................  
....................    if (quad == 0 || quad == 2) 
....................       t = frac * PI_DIV_BY_TWO; 
....................    else if (quad == 1) 
....................       t = (1-frac) * PI_DIV_BY_TWO; 
....................    else // should be 3 
....................       t = (frac-1) * PI_DIV_BY_TWO; 
....................  
....................    y = 1.0; 
....................    t = t * t; 
....................    for (i = 0; i <= 4; i++) 
....................    { 
....................       t2 = t2 * t; 
....................       y = y + p[i] * t2; 
....................    } 
....................  
....................    if (quad == 2 || quad == 1) 
....................       y = -y;  // correct sign 
....................  
....................    return (y); 
.................... } 
....................  
....................  
.................... //Overloaded functions for cos() for PCD 
.................... // Overloaded function cos() for data type - Float48 
.................... #if defined(__PCD__) 
.................... float48 cos(float48 x) 
.................... { 
....................    float48 y, t, t2 = 1.0; 
....................    unsigned int8 quad, i; 
....................    float48 frac; 
....................    float48 p[6] = {                    //by the series definition for cosine 
....................       -0.5,                            // sum ( ( (-1)^n * x^2n )/(2n)! ) 
....................        0.04166666666667, 
....................       -0.00138888888889, 
....................        0.00002480158730, 
....................       -0.00000027557319, 
....................        0.00000000208767, 
....................       //-0.00000000001147, 
....................       // 0.00000000000005 
....................    }; 
....................  
....................    if (x < 0) x = -x;                  // absolute value of input 
....................  
....................    quad = (unsigned int8)(x * PI_DIV_BY_TWO_INV);    // quadrant 
....................    frac = (x * PI_DIV_BY_TWO_INV) - quad;  // fractional part of input 
....................    quad = quad % 4;                    // quadrant (0 to 3) 
....................  
....................    if (quad == 0 || quad == 2) 
....................       t = frac * PI_DIV_BY_TWO; 
....................    else if (quad == 1) 
....................       t = (1-frac) * PI_DIV_BY_TWO; 
....................    else // should be 3 
....................       t = (frac-1) * PI_DIV_BY_TWO; 
....................  
....................    y = 0.999999999781; 
....................    t = t * t; 
....................    for (i = 0; i <= 5; i++) 
....................    { 
....................       t2 = t2 * t; 
....................       y = y + p[i] * t2; 
....................    } 
....................  
....................    if (quad == 2 || quad == 1) 
....................       y = -y;  // correct sign 
....................  
....................    return (y); 
.................... } 
....................  
.................... // Overloaded function cos() for data type - Float64 
.................... float64 cos(float64 x) 
.................... { 
....................    float64 y, t, t2 = 1.0; 
....................    unsigned int8 quad, i; 
....................    float64 frac; 
....................    float64 p_64[9] = {               //by the series definition for cosine 
....................      -0.49999999999998740,           // sum ( ( (-1)^n * x^2n )/(2n)! )              
....................       0.04166666666656518, 
....................      -0.00138888888851691, 
....................       0.00002480158658490, 
....................      -0.00000027557239796, 
....................       0.00000000208715031, 
....................      -0.00000000001126577, 
....................       0.00000000000000427, 
....................       0.00000000000000372}; 
....................  
....................    if (x < 0) x = -x;                  // absolute value of input 
....................  
....................    quad = (unsigned int8)(x * PI_DIV_BY_TWO_INV);    // quadrant 
....................    frac = (x * PI_DIV_BY_TWO_INV) - quad;  // fractional part of input 
....................    quad = quad % 4;                    // quadrant (0 to 3) 
....................  
....................    if (quad == 0 || quad == 2) 
....................       t = frac * PI_DIV_BY_TWO; 
....................    else if (quad == 1) 
....................       t = (1-frac) * PI_DIV_BY_TWO; 
....................    else // should be 3 
....................       t = (frac-1) * PI_DIV_BY_TWO; 
....................  
....................    y = 1.0; 
....................    t = t * t; 
....................    for (i = 0; i <= 8; i++) 
....................    { 
....................       t2 = t2 * t; 
....................       y = y + p_64[i] * t2; 
....................    } 
....................  
....................    if (quad == 2 || quad == 1) 
....................       y = -y;  // correct sign 
....................  
....................    return (y); 
.................... } 
....................  
.................... #endif 
....................  
.................... //////////////////////////////////////////////////////////////////////////// 
.................... //   float sin(float x) 
.................... //////////////////////////////////////////////////////////////////////////// 
.................... // Description : returns the sine value of the angle x, which is in radian 
.................... // Date : 9/20/2001 
.................... // 
.................... float32 sin(float32 x) 
.................... { 
....................    return cos(x - PI_DIV_BY_TWO); 
.................... } 
....................  
.................... //Overloaded functions for sin() for PCD 
.................... // Overloaded function sin() for data type - Float48 
.................... #if defined(__PCD__) 
.................... float48 sin(float48 x) 
.................... { 
....................    return cos(x - PI_DIV_BY_TWO); 
.................... } 
....................  
.................... // Overloaded function sin() for data type - Float48 
.................... float64 sin(float64 x) 
.................... { 
....................    return cos(x - PI_DIV_BY_TWO); 
.................... } 
.................... #endif 
....................  
.................... //////////////////////////////////////////////////////////////////////////// 
.................... //   float tan(float x) 
.................... //////////////////////////////////////////////////////////////////////////// 
.................... // Description : returns the tangent value of the angle x, which is in radian 
.................... // Date : 9/20/2001 
.................... // 
.................... float32 tan(float32 x) 
.................... { 
....................    float32 c, s; 
....................  
....................    c = cos(x); 
....................    if (c == 0.0) 
....................       return (1.0e+36); 
....................  
....................    s = sin(x); 
....................    return(s/c); 
.................... } 
.................... //Overloaded functions for tan() for PCD 
.................... // Overloaded function tan() for data type - Float48 
.................... #if defined(__PCD__) 
.................... float48 tan(float48 x) 
.................... { 
....................    float48 c, s; 
....................  
....................    c = cos(x); 
....................    if (c == 0.0) 
....................       return (1.0e+36); 
....................  
....................    s = sin(x); 
....................    return(s/c); 
.................... } 
....................  
.................... // Overloaded function tan() for data type - Float48 
.................... float64 tan(float64 x) 
.................... { 
....................    float64 c, s; 
....................  
....................    c = cos(x); 
....................    if (c == 0.0) 
....................       return (1.0e+36); 
....................  
....................    s = sin(x); 
....................    return(s/c); 
.................... } 
.................... #endif 
....................  
.................... float32 const pas[3] = {0.49559947, -4.6145309, 5.6036290}; 
.................... float32 const qas[3] = {1.0000000,  -5.5484666, 5.6036290}; 
....................  
.................... float32 ASIN_COS(float32 x, unsigned int8 n) 
.................... { 
....................    float32 y, res, r, y2; 
....................    int1 s; 
....................    #ifdef _ERRNO 
....................    if(x <-1 || x > 1) 
....................    { 
....................       errno=EDOM; 
....................    } 
....................    #endif 
....................    s = 0; 
....................    y = x; 
....................  
....................    if (x < 0) 
....................    { 
....................       s = 1; 
....................       y = -y; 
....................    } 
....................  
....................    if (y > 0.5) 
....................    { 
....................       y = sqrt((1.0 - y)*0.5); 
....................       n += 2; 
....................    } 
....................  
....................    y2=y*y; 
....................  
....................    res = pas[0]*y2 + pas[1]; 
....................    res = res*y2 + pas[2]; 
....................  
....................    r = qas[0]*y2 + qas[1]; 
....................    r = r*y2 + qas[2]; 
....................  
....................    res = y*res/r; 
....................  
....................    if (n & 2)     // |x| > 0.5 
....................       res = PI_DIV_BY_TWO - 2.0*res; 
....................    if (s) 
....................       res = -res; 
....................    if (n & 1)           // take arccos 
....................       res = PI_DIV_BY_TWO - res; 
....................  
....................    return(res); 
.................... } 
....................  
....................  
.................... //Overloaded functions for ASIN_COS() for PCD 
.................... // Overloaded function ASIN_COS() for data type - Float48 
.................... #if defined(__PCD__) 
.................... float48 ASIN_COS(float48 x, unsigned int8 n) 
.................... { 
....................    float48 y, res, r, y2; 
....................    int1 s; 
....................    #ifdef _ERRNO 
....................    if(x <-1 || x > 1) 
....................    { 
....................       errno=EDOM; 
....................    } 
....................    #endif 
....................    s = 0; 
....................    y = x; 
....................  
....................    if (x < 0) 
....................    { 
....................       s = 1; 
....................       y = -y; 
....................    } 
....................  
....................    if (y > 0.5) 
....................    { 
....................       y = sqrt((1.0 - y)*0.5); 
....................       n += 2; 
....................    } 
....................  
....................    y2=y*y; 
....................  
....................    res = pas[0]*y2 + pas[1]; 
....................    res = res*y2 + pas[2]; 
....................  
....................    r = qas[0]*y2 + qas[1]; 
....................    r = r*y2 + qas[2]; 
....................  
....................    res = y*res/r; 
....................  
....................    if (n & 2)     // |x| > 0.5 
....................       res = PI_DIV_BY_TWO - 2.0*res; 
....................    if (s) 
....................       res = -res; 
....................    if (n & 1)           // take arccos 
....................       res = PI_DIV_BY_TWO - res; 
....................  
....................    return(res); 
.................... } 
....................  
.................... // Overloaded function ASIN_COS() for data type - Float64 
.................... double pas_64[5]={1.000000000000000,-2.069938587724477,1.421444580548907, 
....................                  -0.360690137621842,0.024929451660228}; 
....................  
.................... double qas_64[5]={-2.236605254391134,1.719212122946451,-0.524122954476133, 
....................                    0.052808872045749,-0.000662536036570}; 
....................                     
.................... float64 ASIN_COS(float64 x, unsigned int8 n) 
.................... { 
....................    float64 y, res, r, y2; 
....................    int1 s; 
....................    #ifdef _ERRNO 
....................    if(x <-1 || x > 1) 
....................    { 
....................       errno=EDOM; 
....................    } 
....................    #endif 
....................    s = 0; 
....................    y = x; 
....................  
....................    if (x < 0) 
....................    { 
....................       s = 1; 
....................       y = -y; 
....................    } 
....................  
....................    if (y > 0.5) 
....................    { 
....................       y = sqrt((1.0 - y)*0.5); 
....................       n += 2; 
....................    } 
....................  
....................    y2=y*y; 
....................  
....................    res = pas_64[4]*y2 + pas_64[3]; 
....................    res = res*y2 + pas_64[2]; 
....................    res = res*y2 + pas_64[1]; 
....................    res = res*y2 + pas_64[0]; 
....................  
....................    r = qas_64[4]*y2 + qas_64[3]; 
....................    r = r*y2 + qas_64[2]; 
....................    r = r*y2 + qas_64[1]; 
....................    r = r*y2 + qas_64[0]; 
....................    r = r*y2 + 1.0; 
....................  
....................    res = y*res/r; 
....................  
....................    if (n & 2)     // |x| > 0.5 
....................       res = PI_DIV_BY_TWO - 2.0*res; 
....................    if (s) 
....................       res = -res; 
....................    if (n & 1)           // take arccos 
....................       res = PI_DIV_BY_TWO - res; 
....................  
....................    return(res); 
.................... } 
.................... #endif 
....................  
.................... //////////////////////////////////////////////////////////////////////////// 
.................... //   float asin(float x) 
.................... //////////////////////////////////////////////////////////////////////////// 
.................... // Description : returns the arcsine value of the value x. 
.................... // Date : N/A 
.................... // 
.................... float32 asin(float32 x) 
.................... { 
....................    float32 r; 
....................  
....................    r = ASIN_COS(x, 0); 
....................    return(r); 
.................... } 
.................... //Overloaded functions for asin() for PCD 
.................... // Overloaded function asin() for data type - Float48 
.................... #if defined(__PCD__) 
.................... float48 asin(float48 x) 
.................... { 
....................    float48 r; 
....................  
....................    r = ASIN_COS(x, 0); 
....................    return(r); 
.................... } 
....................  
.................... // Overloaded function asin() for data type - Float64 
.................... float64 asin(float64 x) 
.................... { 
....................    float64 r; 
....................  
....................    r = ASIN_COS(x, 0); 
....................    return(r); 
.................... } 
.................... #endif 
....................  
.................... //////////////////////////////////////////////////////////////////////////// 
.................... //   float acos(float x) 
.................... //////////////////////////////////////////////////////////////////////////// 
.................... // Description : returns the arccosine value of the value x. 
.................... // Date : N/A 
.................... // 
.................... float32 acos(float32 x) 
.................... { 
....................    float32 r; 
....................  
....................    r = ASIN_COS(x, 1); 
....................    return(r); 
.................... } 
.................... //Overloaded functions for acos() for PCD 
.................... // Overloaded function acos() for data type - Float48 
.................... #if defined(__PCD__) 
.................... float48 acos(float48 x) 
.................... { 
....................    float48 r; 
....................  
....................    r = ASIN_COS(x, 1); 
....................    return(r); 
.................... } 
....................  
.................... // Overloaded function acos() for data type - Float64 
.................... float64 acos(float64 x) 
.................... { 
....................    float64 r; 
....................  
....................    r = ASIN_COS(x, 1); 
....................    return(r); 
.................... } 
.................... #endif 
....................  
.................... float32 const pat[4] = {0.17630401, 5.6710795, 22.376096, 19.818457}; 
.................... float32 const qat[4] = {1.0000000,  11.368190, 28.982246, 19.818457}; 
....................  
.................... //////////////////////////////////////////////////////////////////////////// 
.................... //   float atan(float x) 
.................... //////////////////////////////////////////////////////////////////////////// 
.................... // Description : returns the arctangent value of the value x. 
.................... // Date : N/A 
.................... // 
.................... float32 atan(float32 x) 
.................... { 
....................    float32 y, res, r; 
....................    int1 s, flag; 
....................  
....................    s = 0; 
....................    flag = 0; 
....................    y = x; 
....................  
....................    if (x < 0) 
....................    { 
....................       s = 1; 
....................       y = -y; 
....................    } 
....................  
....................    if (y > 1.0) 
....................    { 
....................       y = 1.0/y; 
....................       flag = 1; 
....................    } 
....................  
....................    res = pat[0]*y*y + pat[1]; 
....................    res = res*y*y + pat[2]; 
....................    res = res*y*y + pat[3]; 
....................  
....................    r = qat[0]*y*y + qat[1]; 
....................    r = r*y*y + qat[2]; 
....................    r = r*y*y + qat[3]; 
....................  
....................    res = y*res/r; 
....................  
....................  
....................    if (flag)                              // for |x| > 1 
....................       res = PI_DIV_BY_TWO - res; 
....................    if (s) 
....................       res = -res; 
....................  
....................    return(res); 
.................... } 
.................... //Overloaded functions for atan() for PCD 
.................... // Overloaded function atan() for data type - Float48 
.................... #if defined(__PCD__) 
.................... float48 atan(float48 x) 
.................... { 
....................    float48 y, res, r; 
....................    int1 s, flag; 
....................  
....................    s = 0; 
....................    flag = 0; 
....................    y = x; 
....................  
....................    if (x < 0) 
....................    { 
....................       s = 1; 
....................       y = -y; 
....................    } 
....................  
....................    if (y > 1.0) 
....................    { 
....................       y = 1.0/y; 
....................       flag = 1; 
....................    } 
....................  
....................    res = pat[0]*y*y + pat[1]; 
....................    res = res*y*y + pat[2]; 
....................    res = res*y*y + pat[3]; 
....................  
....................    r = qat[0]*y*y + qat[1]; 
....................    r = r*y*y + qat[2]; 
....................    r = r*y*y + qat[3]; 
....................  
....................    res = y*res/r; 
....................  
....................  
....................    if (flag)                              // for |x| > 1 
....................       res = PI_DIV_BY_TWO - res; 
....................    if (s) 
....................       res = -res; 
....................  
....................    return(res); 
.................... } 
....................  
.................... float64 pat_64[6]={0.999999999999999,2.249923645595566,1.771541617806449, 
....................                    0.579678874003185,0.072162702162882,0.002281100141660}; 
....................  
.................... float64 qat_64[6]={2.583256978928510,2.432627277466967,1.016760379885393, 
....................                    0.182482977188688,0.011155377971690,0.000100013019160}; 
.................... // Overloaded function atan() for data type - Float64 
.................... float64 atan(float64 x) 
.................... { 
....................    float64 y,y2, res, r; 
....................    int1 s, flag; 
....................  
....................    s = 0; 
....................    flag = 0; 
....................    y = x; 
....................  
....................    if (x < 0) 
....................    { 
....................       s = 1; 
....................       y = -y; 
....................    } 
....................  
....................    if (y > 1.0) 
....................    { 
....................       y = 1.0/y; 
....................       flag = 1; 
....................    } 
....................    y2 = y*y; 
....................    res = pat_64[5]*y2 + pat_64[4]; 
....................    res = res*y2 + pat_64[3]; 
....................    res = res*y2 + pat_64[2]; 
....................    res = res*y2 + pat_64[1]; 
....................    res = res*y2 + pat_64[0]; 
....................  
....................    r = qat_64[5]*y2 + qat_64[4]; 
....................    r = r*y2 + qat_64[3]; 
....................    r = r*y2 + qat_64[2]; 
....................    r = r*y2 + qat_64[1]; 
....................    r = r*y2 + qat_64[0]; 
....................    r = r*y2 + 1.0; 
....................  
....................    res = y*res/r; 
....................  
....................  
....................    if (flag)                              // for |x| > 1 
....................       res = PI_DIV_BY_TWO - res; 
....................    if (s) 
....................       res = -res; 
....................  
....................    return(res); 
.................... } 
.................... #endif 
....................  
.................... ///////////////////////////////////////////////////////////////////////////// 
.................... //   float atan2(float y, float x) 
.................... ///////////////////////////////////////////////////////////////////////////// 
.................... // Description :computes the principal value of arc tangent of y/x, using the 
.................... // signs of both the arguments to determine the quadrant of the return value 
.................... // Returns : returns the arc tangent of y/x. 
.................... // Date : N/A 
.................... // 
....................  
.................... float32 atan2(float32 y,float32 x) 
.................... { 
....................    float32 z; 
....................    int1 sign; 
....................    unsigned int8 quad; 
....................    sign=0; 
....................    quad=0; //quadrant 
....................    quad=((y<=0.0)?((x<=0.0)?3:4):((x<0.0)?2:1)); 
....................    if(y<0.0) 
....................    { 
....................       sign=1; 
....................       y=-y; 
....................    } 
....................    if(x<0.0) 
....................    { 
....................       x=-x; 
....................    } 
....................    if (x==0.0) 
....................    { 
....................       if(y==0.0) 
....................       { 
....................       #ifdef _ERRNO 
....................       { 
....................          errno=EDOM; 
....................       } 
....................       #endif 
....................       } 
....................       else 
....................       { 
....................          if(sign) 
....................          { 
....................          return (-(PI_DIV_BY_TWO)); 
....................          } 
....................          else 
....................          { 
....................          return (PI_DIV_BY_TWO); 
....................          } 
....................       } 
....................    } 
....................    else 
....................    { 
....................       z=y/x; 
....................       switch(quad) 
....................       { 
....................          case 1: 
....................          { 
....................             return atan(z); 
....................             break; 
....................          } 
....................          case 2: 
....................          { 
.................... //            return (atan(z)+PI_DIV_BY_TWO);  //2L3122 
....................             return (PI-atan(z)); 
....................             break; 
....................          } 
....................          case 3: 
....................          { 
....................             return (atan(z)-PI); 
....................             break; 
....................          } 
....................          case 4: 
....................          { 
....................             return (-atan(z)); 
....................             break; 
....................          } 
....................       } 
....................    } 
.................... } 
....................  
.................... //Overloaded functions for atan2() for PCD 
.................... // Overloaded function atan2() for data type - Float48 
.................... #if defined(__PCD__) 
.................... float48 atan2(float48 y,float48 x) 
.................... { 
....................    float48 z; 
....................    int1 sign; 
....................    unsigned int8 quad; 
....................    sign=0; 
....................    quad=0; //quadrant 
....................    quad=((y<=0.0)?((x<=0.0)?3:4):((x<0.0)?2:1)); 
....................    if(y<0.0) 
....................    { 
....................       sign=1; 
....................       y=-y; 
....................    } 
....................    if(x<0.0) 
....................    { 
....................       x=-x; 
....................    } 
....................    if (x==0.0) 
....................    { 
....................       if(y==0.0) 
....................       { 
....................       #ifdef _ERRNO 
....................       { 
....................          errno=EDOM; 
....................       } 
....................       #endif 
....................       } 
....................       else 
....................       { 
....................          if(sign) 
....................          { 
....................          return (-(PI_DIV_BY_TWO)); 
....................          } 
....................          else 
....................          { 
....................          return (PI_DIV_BY_TWO); 
....................          } 
....................       } 
....................    } 
....................    else 
....................    { 
....................       z=y/x; 
....................       switch(quad) 
....................       { 
....................          case 1: 
....................          { 
....................             return atan(z); 
....................             break; 
....................          } 
....................          case 2: 
....................          { 
.................... //            return (atan(z)+PI_DIV_BY_TWO);  //2L3122 
....................             return (PI-atan(z)); 
....................             break; 
....................          } 
....................          case 3: 
....................          { 
....................             return (atan(z)-PI); 
....................             break; 
....................          } 
....................          case 4: 
....................          { 
....................             return (-atan(z)); 
....................             break; 
....................          } 
....................       } 
....................    } 
.................... } 
....................  
.................... // Overloaded function atan2() for data type - Float64 
.................... float64 atan2(float64 y,float64 x) 
.................... { 
....................    float64 z; 
....................    int1 sign; 
....................    unsigned int8 quad; 
....................    sign=0; 
....................    quad=0; //quadrant 
....................    quad=((y<=0.0)?((x<=0.0)?3:4):((x<0.0)?2:1)); 
....................    if(y<0.0) 
....................    { 
....................       sign=1; 
....................       y=-y; 
....................    } 
....................    if(x<0.0) 
....................    { 
....................       x=-x; 
....................    } 
....................    if (x==0.0) 
....................    { 
....................       if(y==0.0) 
....................       { 
....................       #ifdef _ERRNO 
....................       { 
....................          errno=EDOM; 
....................       } 
....................       #endif 
....................       } 
....................       else 
....................       { 
....................          if(sign) 
....................          { 
....................          return (-(PI_DIV_BY_TWO)); 
....................          } 
....................          else 
....................          { 
....................          return (PI_DIV_BY_TWO); 
....................          } 
....................       } 
....................    } 
....................    else 
....................    { 
....................       z=y/x; 
....................       switch(quad) 
....................       { 
....................          case 1: 
....................          { 
....................             return atan(z); 
....................             break; 
....................          } 
....................          case 2: 
....................          { 
.................... //            return (atan(z)+PI_DIV_BY_TWO);  //2L3122 
....................             return (PI-atan(z)); 
....................             break; 
....................          } 
....................          case 3: 
....................          { 
....................             return (atan(z)-PI); 
....................             break; 
....................          } 
....................          case 4: 
....................          { 
....................             return (-atan(z)); 
....................             break; 
....................          } 
....................       } 
....................    } 
.................... } 
.................... #endif 
....................  
.................... //////////////////// Hyperbolic functions //////////////////// 
....................  
.................... //////////////////////////////////////////////////////////////////////////// 
.................... //   float cosh(float x) 
.................... //////////////////////////////////////////////////////////////////////////// 
.................... // Description : Computes the hyperbolic cosine value of x 
.................... // Returns : returns the hyperbolic cosine value of x 
.................... // Date : N/A 
.................... // 
....................  
.................... float32 cosh(float32 x) 
.................... { 
....................    return ((exp(x)+exp(-x))*0.5); 
.................... } 
.................... //Overloaded functions for cosh() for PCD 
.................... // Overloaded function cosh() for data type - Float48 
.................... #if defined(__PCD__) 
.................... float48 cosh(float48 x) 
.................... { 
....................    return ((exp(x)+exp(-x))*0.5); 
.................... } 
....................  
.................... // Overloaded function cosh() for data type - Float64 
.................... float64 cosh(float64 x) 
.................... { 
....................    return ((exp(x)+exp(-x))*0.5); 
.................... } 
.................... #endif 
....................  
.................... //////////////////////////////////////////////////////////////////////////// 
.................... //   float sinh(float x) 
.................... //////////////////////////////////////////////////////////////////////////// 
.................... // Description : Computes the hyperbolic sine value of x 
.................... // Returns : returns the hyperbolic sine value of x 
.................... // Date : N/A 
.................... // 
....................  
.................... float32 sinh(float32 x) 
.................... { 
....................  
....................    return ((exp(x) - exp(-x))*0.5); 
.................... } 
.................... //Overloaded functions for sinh() for PCD 
.................... // Overloaded function sinh() for data type - Float48 
.................... #if defined(__PCD__) 
.................... float48 sinh(float48 x) 
.................... { 
....................  
....................    return ((exp(x) - exp(-x))*0.5); 
.................... } 
....................  
.................... // Overloaded function sinh() for data type - Float48 
.................... float64 sinh(float64 x) 
.................... { 
....................  
....................    return ((exp(x) - exp(-x))*0.5); 
.................... } 
.................... #endif 
....................  
.................... //////////////////////////////////////////////////////////////////////////// 
.................... //   float tanh(float x) 
.................... //////////////////////////////////////////////////////////////////////////// 
.................... // Description : Computes the hyperbolic tangent value of x 
.................... // Returns : returns the hyperbolic tangent value of x 
.................... // Date : N/A 
.................... // 
....................  
.................... float32 tanh(float32 x) 
.................... { 
....................    return(sinh(x)/cosh(x)); 
.................... } 
.................... //Overloaded functions for tanh() for PCD 
.................... // Overloaded function tanh() for data type - Float48 
.................... #if defined(__PCD__) 
.................... float48 tanh(float48 x) 
.................... { 
....................    return(sinh(x)/cosh(x)); 
.................... } 
....................  
.................... // Overloaded function tanh() for data type - Float64 
.................... float64 tanh(float64 x) 
.................... { 
....................    return(sinh(x)/cosh(x)); 
.................... } 
.................... #endif 
....................  
.................... //////////////////////////////////////////////////////////////////////////// 
.................... //   float frexp(float x, signed int *exp) 
.................... //////////////////////////////////////////////////////////////////////////// 
.................... // Description : breaks a floating point number into a normalized fraction and an integral 
.................... // power of 2. It stores the integer in the signed int object pointed to by exp. 
.................... // Returns : returns the value x, such that x is a double with magnitude in the interval 
.................... // [1/2,1) or zero, and value equals x times 2 raised to the power *exp.If value is zero, 
.................... // both parts of the result are zero. 
.................... // Date : N/A 
.................... // 
....................  
.................... #define LOG2 .30102999566398119521 
.................... #define LOG2_INV 3.32192809488736234787 
.................... float32 frexp(float32 x, signed int8 *exp) 
.................... { 
....................    float32 res; 
....................    int1 sign = 0; 
....................    if(x == 0.0) 
....................    { 
....................       *exp=0; 
....................       return (0.0); 
....................    } 
....................    if(x < 0.0) 
....................    { 
....................      x=-x; 
....................      sign=1; 
....................    } 
....................    if (x > 1.0) 
....................    { 
....................       *exp=(ceil(log10(x)*LOG2_INV)); 
....................       res=x/(pow(2, *exp)); 
....................       if (res == 1) 
....................       { 
....................          *exp=*exp+1; 
....................           res=.5; 
....................       } 
....................    } 
....................    else 
....................    { 
....................       if(x < 0.5) 
....................       { 
....................          *exp=-1; 
....................          res=x*2; 
....................       } 
....................       else 
....................       { 
....................          *exp=0; 
....................           res=x; 
....................       } 
....................    } 
....................    if(sign) 
....................    { 
....................       res=-res; 
....................    } 
....................    return res; 
.................... } 
....................  
.................... //Overloaded functions for frexp() for PCD 
.................... // Overloaded function frexp() for data type - Float48 
.................... #if defined(__PCD__) 
.................... float48 frexp(float48 x, signed int8 *exp) 
.................... { 
....................    float48 res; 
....................    int1 sign = 0; 
....................    if(x == 0.0) 
....................    { 
....................       *exp=0; 
....................       return (0.0); 
....................    } 
....................    if(x < 0.0) 
....................    { 
....................      x=-x; 
....................      sign=1; 
....................    } 
....................    if (x > 1.0) 
....................    { 
....................       *exp=(ceil(log10(x)*LOG2_INV)); 
....................       res=x/(pow(2, *exp)); 
....................       if (res == 1) 
....................       { 
....................          *exp=*exp+1; 
....................           res=.5; 
....................       } 
....................    } 
....................    else 
....................    { 
....................       if(x < 0.5) 
....................       { 
....................          *exp=-1; 
....................          res=x*2; 
....................       } 
....................       else 
....................       { 
....................          *exp=0; 
....................           res=x; 
....................       } 
....................    } 
....................    if(sign) 
....................    { 
....................       res=-res; 
....................    } 
....................    return res; 
.................... } 
....................  
.................... // Overloaded function frexp() for data type - Float64 
.................... float64 frexp(float64 x, signed int8 *exp) 
.................... { 
....................    float64 res; 
....................    int1 sign = 0; 
....................    if(x == 0.0) 
....................    { 
....................       *exp=0; 
....................       return (0.0); 
....................    } 
....................    if(x < 0.0) 
....................    { 
....................      x=-x; 
....................      sign=1; 
....................    } 
....................    if (x > 1.0) 
....................    { 
....................       *exp=(ceil(log10(x)*LOG2_INV)); 
....................       res=x/(pow(2, *exp)); 
....................       if (res == 1) 
....................       { 
....................          *exp=*exp+1; 
....................           res=.5; 
....................       } 
....................    } 
....................    else 
....................    { 
....................       if(x < 0.5) 
....................       { 
....................          *exp=-1; 
....................          res=x*2; 
....................       } 
....................       else 
....................       { 
....................          *exp=0; 
....................           res=x; 
....................       } 
....................    } 
....................    if(sign) 
....................    { 
....................       res=-res; 
....................    } 
....................    return res; 
.................... } 
.................... #endif 
....................  
.................... ////////////////////////////////////////////////////////////////////////////// 
.................... //   float ldexp(float x, signed int *exp) 
.................... ////////////////////////////////////////////////////////////////////////////// 
.................... // Description : multiplies a floating point number by an integral power of 2. 
.................... // Returns : returns the value of x times 2 raised to the power exp. 
.................... // Date : N/A 
.................... // 
....................  
.................... float32 ldexp(float32 value, signed int8 exp) 
.................... { 
....................    return (value * pow(2,exp)); 
.................... } 
.................... //Overloaded functions for ldexp() for PCD 
.................... // Overloaded function ldexp() for data type - Float48 
....................  
.................... #if defined(__PCD__) 
.................... float48 ldexp(float48 value, signed int8 exp) 
.................... { 
....................    return (value * pow(2,exp)); 
.................... } 
.................... // Overloaded function ldexp() for data type - Float64 
.................... float64 ldexp(float64 value, signed int8 exp) 
.................... { 
....................    return (value * pow(2,exp)); 
.................... } 
.................... #endif 
....................  
.................... #endif 
....................  
.................... #use delay(clock=2000000) 
*
003C:  CLRF   FEA
003E:  MOVLW  1D
0040:  MOVWF  FE9
0042:  MOVF   FEF,W
0044:  BZ    0054
0046:  MOVLW  A5
0048:  MOVWF  00
004A:  DECFSZ 00,F
004C:  BRA    004A
004E:  NOP   
0050:  DECFSZ FEF,F
0052:  BRA    0046
0054:  RETURN 0
.................... void lcd_init(void);             // Ham dung de khoi dong C.LCD. 
.................... byte lcd_read_byte(void);         // Ham xu ly doc thong tin (dang 8 bit) tu thong tin dang 4 bit tu C.LCD. 
.................... byte lcd_read_nibble(void);         // Ham doc thong tin (dang 4 bit / nibble) tu C.LCD. 
.................... void lcd_send_byte(byte address, byte n);   // Ham gui thong tin (byte) toi C.LCD tai dia chi (address). 
.................... void lcd_send_nibble(byte n);      // Ham gui thong tin (dang 4 bit / nibble) sang C.LCD. 
.................... void lcd_gotoxy(byte x, byte y);   // Ham thiet lap vi tri ghi tren C.LCD. 
.................... char lcd_getc(byte x, byte y);      // Ham tra ve ky tu tai vi tri (x,y) tren C.LCD. 
.................... void lcd_putc(char c);            // Ham se hien thi ky tu c tai vi tri ke tiep tren C.LCD. 
.................... // Khai bao bien. 
.................... // Dinh nghia cac thong so. 
.................... //!#define LCD_RS_PIN         PIN_D1   // Cac ket noi C.LCD voi vi dieu khien. 
.................... //!#define LCD_RW_PIN         PIN_D2 
.................... //!#define LCD_ENABLE_PIN     PIN_D3 
.................... //!#define LCD_DATA4          PIN_D4 
.................... //!#define LCD_DATA5          PIN_D5 
.................... //!#define LCD_DATA6          PIN_D6 
.................... //!#define LCD_DATA7          PIN_D7  
....................  
.................... #define LCD_RS_PIN         PIN_E1   // Cac ket noi C.LCD voi vi dieu khien. 
.................... #define LCD_RW_PIN         PIN_E2 
.................... #define LCD_ENABLE_PIN     PIN_E0 
.................... #define LCD_DATA4          PIN_C4 
.................... #define LCD_DATA5          PIN_C5 
.................... #define LCD_DATA6          PIN_C6 
.................... #define LCD_DATA7          PIN_C7 
....................  
.................... /* 
.................... #define LCD_RS_PIN         PIN_D1   // Cac ket noi C.LCD voi vi dieu khien. 
.................... #define LCD_RW_PIN      PIN_D2 
.................... #define LCD_ENABLE_PIN  PIN_D3 
.................... #define LCD_DATA4       PIN_D4 
.................... #define LCD_DATA5       PIN_D5 
.................... #define LCD_DATA6       PIN_D6 
.................... #define LCD_DATA7       PIN_D7   
.................... */ 
.................... #define lcd_output_enable(x)   output_bit(LCD_ENABLE_PIN, x)   // Lenh dieu khien chan LCD_ENABLE_PIN. 
.................... #define lcd_enable_tris()   output_drive(LCD_ENABLE_PIN) 
....................  
.................... #define lcd_output_rs(x)   output_bit(LCD_RS_PIN, x)   // Lenh dieu khien chan LCD_RS_PIN. 
.................... #define lcd_rs_tris()      output_drive(LCD_RS_PIN) 
....................  
.................... #define lcd_output_rw(x)   output_bit(LCD_RW_PIN, x)   // Lenh dieu khien chan LCD_RW_PIN 
.................... #define lcd_rw_tris()      output_drive(LCD_RW_PIN) 
....................  
.................... #define lcd_line_one   0x00    // Dia chi RAM C.LCD cho hang thu 1. 
.................... #define lcd_line_two   0x40    // Dia chi RAM C.LCD cho hang thu 2. 
.................... #define lcd_line_three   0x14 
.................... #define lcd_line_four   0x54 
.................... #define LCD_TYPE 0x02           // Thong tin cau hinh C.LCD: 0x00=5x7, 0x01=5x10, 0x02=2 lines 
....................  
.................... // Dinh nghia cac hang so. 
.................... byte const LCD_INIT_STRING[4] = {0x28 | (LCD_TYPE << 2), 0x0C, 0x01, 0x06}; 
....................         // Cac byte nay can thiet de gui toi C.LCD, dung de khoi dong cau hinh hoat dong cho C.LCD. 
....................       // Byte 1: 0x20 | (LCD_TYPE << 2) - So bit du lieu giao tiep (DL), so dong hien thi (N), kieu ky tu (F). 
....................       //         0 0 1 DL N F x x (DL: Data Length, N: Number Line, F: Font). 
....................          // Truong hop 1: 0x20 - 4 bit / 1 dong / 5 x 7. 
....................          // Truong hop 2: 0x24 - 4 bit / 1 dong / 5 x 10. 
....................          // Truong hop 3: 0x28 - 4 bit / 2 dong / 5 x 7. 
....................       // Byte 2: 0x0C - Dieu khien hien thi (Bat hien thi, tat con tro, tat nhap nhay con tro). 
....................       //         0 0 0 0 1 D C B (D: Display, C: Cursor, B: Blink). 
....................       // Byte 3: 0x01 - Xoa hien thi va tra con tro ve dau dong. 
....................       // Byte 4: 0x06 - Dat che do dau vao (Che do tang dia chi, tat dich chuyen hien thi). 
....................       //         0 0 0 0 0 1 I/D S (I/D: Increment/Decrement, S: Shift). 
....................       // Byte 5: .... - Doi con tro / hien thi. 
....................       //         0 0 0 1 S/C R/L x x (S/C: Screen/Cursor, R/L: Right/Left). 
....................  
.................... // *************************************************** 
.................... void lcd_init(void)    // Ham dung de khoi dong C.LCD. 
.................... { 
.................... // Khai bao bien. 
.................... byte i; 
.................... // Dinh nghia ham. 
.................... output_drive(LCD_DATA4);   // Thiet lap chan port (Data) o che do ngo ra. 
*
0170:  BCF    F94.4
.................... output_drive(LCD_DATA5); 
0172:  BCF    F94.5
.................... output_drive(LCD_DATA6); 
0174:  BCF    F94.6
.................... output_drive(LCD_DATA7); 
0176:  BCF    F94.7
....................  
.................... lcd_enable_tris();         // Thiet lap chan port (Control: EN, RS, RW) o che do ngo ra. 
0178:  BCF    F96.0
.................... lcd_rs_tris(); 
017A:  BCF    F96.1
.................... lcd_rw_tris(); 
017C:  BCF    F96.2
....................  
.................... lcd_output_rs(0);         // RS = 0 - Databus = Bus lenh. 
017E:  BCF    F8D.1
0180:  BCF    F96.1
.................... lcd_output_rw(0);         // RW = 0 - Ghi thong tin vao C.LCD. 
0182:  BCF    F8D.2
0184:  BCF    F96.2
.................... lcd_output_enable(0);      // EN = 0 - Cam truy xuat C.LCD. 
0186:  BCF    F8D.0
0188:  BCF    F96.0
....................  
.................... delay_ms(15);   // Tao thoi gian tre 15ms (Thoi gian de LCD tu reset khi moi duoc cap nguon). 
018A:  MOVLW  0F
018C:  MOVWF  1D
018E:  RCALL  003C
....................  
.................... for(i=1;i<=3;i++)         // Doan lenh khoi dong C.LCD o che do 8 bit duoc thuc hien 3 lan lien tiep 
0190:  MOVLW  01
0192:  MOVWF  16
0194:  MOVF   16,W
0196:  SUBLW  03
0198:  BNC   01AA
....................    {                  // tai thoi diem ban dau (de dam bao cho C.LCD hoat dong on dinh trong  
....................    lcd_send_nibble(0x03);    // truong hop khi cung cap nguon cho C.LCD ma dien ap nguon tang len cham). 
019A:  MOVLW  03
019C:  MOVWF  24
019E:  RCALL  0056
....................    delay_ms(5);         // RS = 0, RW = 0, D7 - D4 = 0011 (0x03) -> DL = 1 (8 bit). 
01A0:  MOVLW  05
01A2:  MOVWF  1D
01A4:  RCALL  003C
01A6:  INCF   16,F
01A8:  BRA    0194
....................    }                  // Do co BF (Busy Flag) chua kiem tra duoc trong thoi diem nay, nen phai  
....................                      // thuc hien 3 lan (xem luu do khoi dong C.LCD cua nha san xuat). 
....................  
.................... lcd_send_nibble(0x02);      // Doan lenh khoi dong C.LCD o che do 4 bit. Tu luc nay thi 4 bit cao duoc ghi 
01AA:  MOVLW  02
01AC:  MOVWF  24
01AE:  RCALL  0056
....................                      // ra truoc tien, sau do la 4 bit thap. 
....................                      // RS = 0, RW = 0, D7 - D4 = 0010 (0x02) -> DL = 0 (4 bit). 
....................                      // Co BF (Busy Flag) co the bat dau kiem tra duoc tu luc nay. 
....................  
.................... for(i=0;i<=3;i++) 
01B0:  CLRF   16
01B2:  MOVF   16,W
01B4:  SUBLW  03
01B6:  BNC   01CA
....................    lcd_send_byte(0,LCD_INIT_STRING[i]);   // Goi ham truyen thong tin (lenh) sang C.LCD. 
01B8:  CLRF   03
01BA:  MOVF   16,W
01BC:  RCALL  0004
01BE:  MOVWF  17
01C0:  CLRF   21
01C2:  MOVWF  22
01C4:  RCALL  0130
01C6:  INCF   16,F
01C8:  BRA    01B2
01CA:  GOTO   0BC0 (RETURN)
.................... }                                 // Lenh: Thiet lap cau hinh hoat dong cho C.LCD. 
....................  
.................... // *************************************************** 
.................... byte lcd_read_byte(void)   // Ham xu ly doc thong tin (dang 8 bit) tu thong tin dang 4 bit tu C.LCD. 
.................... { 
.................... // Khai bao bien. 
.................... byte low,high; 
.................... // Dinh nghia ham. 
.................... output_float(LCD_DATA4);   // Thiet lap chan port o che do ngo vao. 
*
00E6:  BSF    F94.4
.................... output_float(LCD_DATA5); 
00E8:  BSF    F94.5
.................... output_float(LCD_DATA6); 
00EA:  BSF    F94.6
.................... output_float(LCD_DATA7); 
00EC:  BSF    F94.7
....................  
.................... lcd_output_rw(1);         // RW = 1 - Doc thong tin tu C.LCD. 
00EE:  BSF    F8D.2
00F0:  BCF    F96.2
....................                   // Tien hanh doc 4 bit cao cua thong tin tu C.LCD. 
.................... delay_cycles(1);         // Tao tre 1 chu ky (t=1us voi fosc=4MHz). 
00F2:  NOP   
.................... lcd_output_enable(1);      // EN = 1 - Cho phep truy xuat C.LCD. 
00F4:  BSF    F8D.0
00F6:  BCF    F96.0
.................... delay_cycles(1);         // Tao tre 1 chu ky (t=1us voi fosc=4MHz). 
00F8:  NOP   
.................... high = lcd_read_nibble();   // Cat tam 4 bit du lieu (4 bit cao). 
00FA:  RCALL  0094
00FC:  MOVFF  01,24
.................... lcd_output_enable(0);      // EN = 0 - Cam truy xuat C.LCD. 
0100:  BCF    F8D.0
0102:  BCF    F96.0
....................                   // Tien hanh doc 4 bit thap cua thong tin tu C.LCD. 
.................... delay_cycles(1);         // Tao tre 1 chu ky (t=1us voi fosc=4MHz). 
0104:  NOP   
.................... lcd_output_enable(1);      // EN = 1 - Cho phep truy xuat C.LCD. 
0106:  BSF    F8D.0
0108:  BCF    F96.0
.................... delay_cycles(1);         // Tao tre 1 chu ky (t=1us voi fosc=4MHz). 
010A:  NOP   
.................... low = lcd_read_nibble();   // Cat tam 4 bit du lieu (4 bit thap). 
010C:  RCALL  0094
010E:  MOVFF  01,23
.................... lcd_output_enable(0);      // EN = 0 - Cam truy xuat C.LCD. 
0112:  BCF    F8D.0
0114:  BCF    F96.0
....................  
.................... output_drive(LCD_DATA4);   // Thiet lap chan port o che do ngo ra. 
0116:  BCF    F94.4
.................... output_drive(LCD_DATA5); 
0118:  BCF    F94.5
.................... output_drive(LCD_DATA6); 
011A:  BCF    F94.6
.................... output_drive(LCD_DATA7); 
011C:  BCF    F94.7
....................  
.................... return((high<<4) | low);   // Tra ve ket qua du lieu (dang 8 bit). 
011E:  SWAPF  24,W
0120:  MOVWF  00
0122:  MOVLW  F0
0124:  ANDWF  00,F
0126:  MOVF   00,W
0128:  IORWF  23,W
012A:  MOVWF  01
012C:  GOTO   0136 (RETURN)
.................... } 
....................  
.................... // *************************************************** 
.................... byte lcd_read_nibble(void)   // Ham doc thong tin (dang 4 bit / nibble) tu C.LCD. 
*
0094:  CLRF   25
.................... { 
.................... // Khai bao bien. 
.................... byte n = 0x00;   // Mac dinh gia tri ban dau cho noi chua se thong tin. 
.................... // Dinh nghia ham. 
.................... n |= input(LCD_DATA4);         // Doc lan luot cac bit tu bus du lieu. 
0096:  BSF    F94.4
0098:  MOVLW  00
009A:  BTFSC  F82.4
009C:  MOVLW  01
009E:  IORWF  25,F
.................... n |= input(LCD_DATA5) << 1; 
00A0:  BSF    F94.5
00A2:  MOVLW  00
00A4:  BTFSC  F82.5
00A6:  MOVLW  01
00A8:  MOVWF  00
00AA:  BCF    FD8.0
00AC:  RLCF   00,F
00AE:  MOVF   00,W
00B0:  IORWF  25,F
.................... n |= input(LCD_DATA6) << 2; 
00B2:  BSF    F94.6
00B4:  MOVLW  00
00B6:  BTFSC  F82.6
00B8:  MOVLW  01
00BA:  MOVWF  00
00BC:  RLCF   00,F
00BE:  RLCF   00,F
00C0:  MOVLW  FC
00C2:  ANDWF  00,F
00C4:  MOVF   00,W
00C6:  IORWF  25,F
.................... n |= input(LCD_DATA7) << 3; 
00C8:  BSF    F94.7
00CA:  MOVLW  00
00CC:  BTFSC  F82.7
00CE:  MOVLW  01
00D0:  MOVWF  00
00D2:  RLCF   00,F
00D4:  RLCF   00,F
00D6:  RLCF   00,F
00D8:  MOVLW  F8
00DA:  ANDWF  00,F
00DC:  MOVF   00,W
00DE:  IORWF  25,F
....................  
.................... return(n);   // Tra ve ket qua doc duoc (data = 0000 xxxx). 
00E0:  MOVFF  25,01
00E4:  RETURN 0
.................... } 
....................  
.................... // *************************************************** 
.................... void lcd_send_byte(byte address, byte n)   // Ham gui thong tin (byte) toi C.LCD tai dia chi (address). 
.................... {                                 // address = 0: Lenh / 1: Du lieu. 
....................                                  // byte = Thong tin can gui (8 bit). 
.................... // Khai bao bien. 
....................  
.................... // Dinh nghia ham.   
.................... lcd_output_rs(0);      // RS = 0 - Databus = Bus lenh. 
*
0130:  BCF    F8D.1
0132:  BCF    F96.1
.................... while(bit_test(lcd_read_byte(),7));   // Cho Busy Flag = 0 (C.LCD da xu ly xong). 
0134:  BRA    00E6
0136:  MOVFF  01,23
013A:  BTFSC  01.7
013C:  BRA    0134
.................... lcd_output_rs(address);   // RS = address - Databus = Bus lenh/du lieu. 
013E:  MOVF   21,F
0140:  BNZ   0146
0142:  BCF    F8D.1
0144:  BRA    0148
0146:  BSF    F8D.1
0148:  BCF    F96.1
.................... delay_cycles(1);      // Tao tre 1 chu ky (t=1us voi fosc=4MHz). 
014A:  NOP   
.................... lcd_output_rw(0);      // RW = 0 - Ghi thong tin vao C.LCD. 
014C:  BCF    F8D.2
014E:  BCF    F96.2
.................... delay_cycles(1);      // Tao tre 1 chu ky (t=1us voi fosc=4MHz). 
0150:  NOP   
.................... lcd_output_enable(0);   // EN = 0 - Cam truy xuat C.LCD. 
0152:  BCF    F8D.0
0154:  BCF    F96.0
.................... lcd_send_nibble(n >> 4);   // Goi ham truyen 4 bit cao sang C.LCD. 
0156:  SWAPF  22,W
0158:  MOVWF  23
015A:  MOVLW  0F
015C:  ANDWF  23,F
015E:  MOVFF  23,24
0162:  RCALL  0056
.................... lcd_send_nibble(n & 0x0F);   // Goi ham truyen 4 bit thap sang C.LCD. 
0164:  MOVF   22,W
0166:  ANDLW  0F
0168:  MOVWF  23
016A:  MOVWF  24
016C:  RCALL  0056
016E:  RETURN 0
.................... } 
....................  
.................... // *************************************************** 
.................... void lcd_send_nibble(byte n)   // Ham gui thong tin (dang 4 bit / nibble) sang C.LCD. 
.................... {                        // n = Thong tin can gui. 4 bit can gui phai nam vi tri 4 bit thap. 
.................... // Khai bao bien. 
....................  
.................... // Dinh nghia ham.  
.................... output_bit(LCD_DATA4, bit_test(n, 0));   // Xuat lan luot cac bit len bus du lieu. 
*
0056:  BTFSC  24.0
0058:  BRA    005E
005A:  BCF    F8B.4
005C:  BRA    0060
005E:  BSF    F8B.4
0060:  BCF    F94.4
.................... output_bit(LCD_DATA5, bit_test(n, 1)); 
0062:  BTFSC  24.1
0064:  BRA    006A
0066:  BCF    F8B.5
0068:  BRA    006C
006A:  BSF    F8B.5
006C:  BCF    F94.5
.................... output_bit(LCD_DATA6, bit_test(n, 2)); 
006E:  BTFSC  24.2
0070:  BRA    0076
0072:  BCF    F8B.6
0074:  BRA    0078
0076:  BSF    F8B.6
0078:  BCF    F94.6
.................... output_bit(LCD_DATA7, bit_test(n, 3)); 
007A:  BTFSC  24.3
007C:  BRA    0082
007E:  BCF    F8B.7
0080:  BRA    0084
0082:  BSF    F8B.7
0084:  BCF    F94.7
....................      
.................... delay_cycles(1);      // Tao tre 1 chu ky (t=1us voi fosc=4MHz). 
0086:  NOP   
.................... lcd_output_enable(1);   // Tao xung ghi thong tin vao C.LCD. 
0088:  BSF    F8D.0
008A:  BCF    F96.0
.................... delay_us(2);         // Tao tre 2 chu ky (t=2us voi fosc=4MHz). 
008C:  NOP   
.................... lcd_output_enable(0);   // Tao xung ghi thong tin vao LCD - EN = 1->0 (High to Low). 
008E:  BCF    F8D.0
0090:  BCF    F96.0
0092:  RETURN 0
.................... } 
....................  
.................... // *************************************************** 
.................... void lcd_gotoxy(byte x, byte y)   // Ham thiet lap vi tri ghi tren C.LCD (Goc tren ben trai co toa do la 1,1). 
.................... { 
.................... // Khai bao bien. 
.................... byte address; 
.................... // Dinh nghia ham.   
.................... if(y==1)               // Kiem tra vi tri truy xuat thuoc hang 2. 
*
02A2:  DECFSZ 1E,W
02A4:  BRA    02AA
....................    address=lcd_line_one;      // Nap dia chi RAM cua hang 2.  
02A6:  CLRF   1F
02A8:  BRA    02CC
.................... else if(y==2)      // Neu vi tri truy xuat thuoc hang 1. 
02AA:  MOVF   1E,W
02AC:  SUBLW  02
02AE:  BNZ   02B6
....................    address=lcd_line_two;      // Nap dia chi RAM cua hang 1. 
02B0:  MOVLW  40
02B2:  MOVWF  1F
02B4:  BRA    02CC
.................... else if(y==3) 
02B6:  MOVF   1E,W
02B8:  SUBLW  03
02BA:  BNZ   02C2
....................    address=lcd_line_three;      
02BC:  MOVLW  14
02BE:  MOVWF  1F
02C0:  BRA    02CC
.................... else if(y==4) 
02C2:  MOVF   1E,W
02C4:  SUBLW  04
02C6:  BNZ   02CC
....................    address=lcd_line_four;    
02C8:  MOVLW  54
02CA:  MOVWF  1F
....................  
.................... address+=x-1;               // Ghep dia chi cot vao dia chi tong quat (address). address = address + (x-1).       
02CC:  MOVLW  01
02CE:  SUBWF  1D,W
02D0:  ADDWF  1F,F
....................                         // Ta qui uoc: Goc tren ben trai co toa do la 1,1 -> Cot dau tien la Cot 1 
....................                         // (x-1) vi C.LCD qui uoc cot dau tien co dia chi la 0. 
.................... lcd_send_byte(0,0x80|address);   // Goi ham truyen thong tin (lenh) sang C.LCD. 
02D2:  MOVF   1F,W
02D4:  IORLW  80
02D6:  MOVWF  20
02D8:  CLRF   21
02DA:  MOVWF  22
02DC:  RCALL  0130
02DE:  RETURN 0
.................... }                        // Lenh: Thiet lap dia chi DDRAM cua C.LCD (addresss).    
....................  
.................... // *************************************************** 
.................... char lcd_getc(byte x, byte y)   // Ham tra ve ky tu tai vi tri (x,y) tren C.LCD. 
.................... { 
.................... // Khai bao bien. 
.................... char value; 
.................... // Dinh nghia ham.   
.................... lcd_gotoxy(x,y);            // Xac dinh toa do C.LCD can truy xuat. 
.................... while(bit_test(lcd_read_byte(),7));   // Cho Busy Flag = 0 (C.LCD da xu ly xong). 
.................... lcd_output_rs(1);         // RS = 1 - Databus = Bus du lieu. 
.................... value = lcd_read_byte();   // Doc ve tu C.LCD. 
.................... lcd_output_rs(0);         // RS = 0 - Databus = Bus lenh. 
....................  
.................... return(value);      // Tra ve ma ky tu tai toa do yeu cau. 
.................... } 
....................  
.................... // *************************************************** 
.................... void lcd_putc(char c)   // Ham se hien thi ky tu c tai vi tri ke tiep tren C.LCD. 
.................... { 
.................... // Khai bao bien. 
....................  
.................... // Dinh nghia ham.  
.................... switch (c) 
02E0:  MOVF   1C,W
02E2:  XORLW  0C
02E4:  BZ    02F0
02E6:  XORLW  06
02E8:  BZ    0300
02EA:  XORLW  02
02EC:  BZ    030C
02EE:  BRA    0316
....................    { 
....................    case '\f':     // Chuc nang xoa hien thi. 
....................       lcd_send_byte(0,0x01);   // Goi ham truyen thong tin (lenh) sang C.LCD. 
02F0:  CLRF   21
02F2:  MOVLW  01
02F4:  MOVWF  22
02F6:  RCALL  0130
....................       delay_ms(2);         // Lenh: Xoa hien thi tren man hinh C.LCD (0x01). 
02F8:  MOVLW  02
02FA:  MOVWF  1D
02FC:  RCALL  003C
....................       break; 
02FE:  BRA    0320
....................    case '\n':       // Chuc nang bat dau hang thu 2. 
....................       lcd_gotoxy(1,0x02);     // Goi ham truyen thong tin (du lieu) sang C.LCD.    
0300:  MOVLW  01
0302:  MOVWF  1D
0304:  MOVLW  02
0306:  MOVWF  1E
0308:  RCALL  02A2
....................       break; 
030A:  BRA    0320
....................     case '\b':       // Chuc nang lui ve 1 vi tri. 
....................       lcd_send_byte(0,0x10);    // Goi ham truyen thong tin (lenh) sang C.LCD.  
030C:  CLRF   21
030E:  MOVLW  10
0310:  MOVWF  22
0312:  RCALL  0130
....................       break;               // Lenh: Doi con tro sang trai (0x10). 
0314:  BRA    0320
....................    default:       // Chuc nang hien thi ky tu c tai vi tri ke tiep tren C.LCD. 
....................       lcd_send_byte(1,c);     // Goi ham truyen thong tin (du lieu) sang C.LCD. 
0316:  MOVLW  01
0318:  MOVWF  21
031A:  MOVFF  1C,22
031E:  RCALL  0130
....................       break; 
....................    } 
0320:  RETURN 0
.................... }       
.................... // ***************************************************    
....................  
.................... #include <math.h> 
.................... //////////////////////////////////////////////////////////////////////////// 
.................... ////        (C) Copyright 1996,2011 Custom Computer Services            //// 
.................... //// This source code may only be used by licensed users of the CCS C   //// 
.................... //// compiler.  This source code may only be distributed to other       //// 
.................... //// licensed users of the CCS C compiler.  No other use, reproduction  //// 
.................... //// or distribution is permitted without written permission.           //// 
.................... //// Derivative programs created using this software in object code     //// 
.................... //// form are not restricted in any way.                                //// 
.................... //////////////////////////////////////////////////////////////////////////// 
.................... ////                                                                    //// 
.................... //// History:                                                           //// 
.................... ////  * 9/20/2001 :  Improvments are made to sin/cos code.              //// 
.................... ////                 The code now is small, much faster,                //// 
.................... ////                 and more accurate.                                 //// 
.................... ////  * 2/21/2007 :  Compiler handles & operator differently and does   //// 
.................... ////                 not return generic (int8 *) so type cast is done   //// 
.................... ////  * 6/19/2010 :  Divisions by constants converted to multiplication //// 
.................... ////                 by its inverse to improve computation speed        //// 
.................... ////  * 1/21/2011 :  Constants used for double precision math updated   //// 
.................... ////                 Updated routines include 64 bit versions of cos,   //// 
.................... ////                 asin,atan,exp,log and dependant functions          //// 
.................... ////  * 1/31/2011 :  Optimized current 32-bit float routines for cos    //// 
.................... ////                 and log function                                   //// 
.................... ////  * 6/13/2011 :  Fixed PCD overload CEIL_FLOOR functions for values //// 
.................... ////                 greater then 10000000 and less then -10000000      //// 
.................... ////                                                                    //// 
.................... //////////////////////////////////////////////////////////////////////////// 
....................  
.................... #ifndef MATH_H 
.................... #define MATH_H 
....................  
.................... #ifdef PI 
.................... #undef  PI 
.................... #endif 
.................... #define PI     3.1415926535897932 
....................  
....................  
.................... #define SQRT2  1.4142135623730950 
....................  
.................... //float const ps[4] = {5.9304945, 21.125224, 8.9403076, 0.29730279}; 
.................... //float const qs[4] = {1.0000000, 15.035723, 17.764134, 2.4934718}; 
....................  
.................... ///////////////////////////// Round Functions ////////////////////////////// 
....................  
.................... float32 CEIL_FLOOR(float32 x, unsigned int8 n) 
.................... { 
....................    float32 y, res; 
....................    unsigned int16 l; 
....................    int1 s; 
....................  
....................    s = 0; 
....................    y = x; 
....................  
....................    if (x < 0) 
....................    { 
....................       s = 1; 
....................       y = -y; 
....................    } 
....................  
....................    if (y <= 32768.0) 
....................       res = (float32)(unsigned int16)y; 
....................  
....................  else if (y < 10000000.0) 
....................    {  
....................       l = (unsigned int16)(y*0.000030517578125); 
....................       y = 32768.0*(y*0.000030517578125 - (float32)l); 
....................       res = 32768.0*(float32)l; 
....................       res += (float32)(unsigned int16)y; 
....................    } 
....................  
....................  else 
....................   res = y; 
....................  
....................  y = y - (float32)(unsigned int16)y; 
....................  
....................  if (s) 
....................   res = -res; 
....................  
....................  if (y != 0) 
....................  { 
....................   if (s == 1 && n == 0) 
....................    res -= 1.0; 
....................  
....................   if (s == 0 && n == 1) 
....................    res += 1.0; 
....................  } 
....................  if (x == 0) 
....................     res = 0; 
....................  
....................  return (res); 
.................... } 
....................  
.................... // Overloaded Functions to take care for new Data types in PCD 
.................... // Overloaded function CEIL_FLOOR() for data type - Float48 
.................... #if defined(__PCD__) 
.................... float48 CEIL_FLOOR(float48 x, unsigned int8 n) 
.................... { 
....................    float48 y, res; 
....................    unsigned int32 l; 
....................    int1 s; 
....................  
....................    s = 0; 
....................    y = x; 
....................  
....................    if (x < 0) 
....................    { 
....................       s = 1; 
....................       y = -y; 
....................    } 
....................  
....................    if (y <= 32768.0) 
....................       res = (float48)(unsigned int16)y; 
....................  
....................    else if (y < 549755813888.0) 
....................    { 
....................       l = (unsigned int32)(y*0.000030517578125); 
....................       y = 32768.0*(y*0.000030517578125 - (float48)l); 
....................       res = 32768.0*(float48)l; 
....................       res += (float48)(unsigned int16)y; 
....................    } 
....................    else 
....................    {   
....................       res = y; 
....................       y = 0.0; 
....................    } 
....................     
....................    if(y != 0) 
....................       y = y - (float48)(unsigned int16)y; 
....................  
....................    if (s) 
....................       res = -res; 
....................  
....................    if (y != 0) 
....................    { 
....................       if (s == 1 && n == 0) 
....................          res -= 1.0; 
....................  
....................       if (s == 0 && n == 1) 
....................          res += 1.0; 
....................    } 
....................    if (x == 0) 
....................       res = 0; 
....................  
....................    return (res); 
.................... } 
....................  
....................  
.................... // Overloaded function CEIL_FLOOR() for data type - Float64 
.................... float64 CEIL_FLOOR(float64 x, unsigned int8 n) 
.................... { 
....................    float64 y, res; 
....................    int64 l; 
....................    int1 s; 
....................  
....................    s = 0; 
....................    y = x; 
....................  
....................    if (x < 0) 
....................    { 
....................       s = 1; 
....................       y = -y; 
....................    } 
....................  
....................    if (y <= 32768.0) 
....................       res = (float64)(unsigned int16)y; 
....................    else if (y < 4503599627370496.0) 
....................    { 
....................       l = (int64)(y*0.000030517578125); 
....................       y = 32768.0*(y*0.000030517578125 - (float64)l); 
....................       res = 32768.0*(float64)l; 
....................       res += (float64)(unsigned int16)y; 
....................    } 
....................    else 
....................    { 
....................       res = y; 
....................       y = 0.0; 
....................    } 
....................     
....................    if(y != 0) 
....................       y = y - (float64)(unsigned int16)y; 
....................  
....................    if (s) 
....................       res = -res; 
....................  
....................    if (y != 0) 
....................    { 
....................       if (s == 1 && n == 0) 
....................          res -= 1.0; 
....................  
....................       if (s == 0 && n == 1) 
....................          res += 1.0; 
....................    } 
....................     
....................    if (x == 0) 
....................       res = 0; 
....................  
....................    return (res); 
.................... } 
.................... #endif 
....................  
.................... //////////////////////////////////////////////////////////////////////////// 
.................... //   float floor(float x) 
.................... //////////////////////////////////////////////////////////////////////////// 
.................... // Description : rounds down the number x. 
.................... // Date : N/A 
.................... // 
.................... float32 floor(float32 x) 
.................... { 
....................    return CEIL_FLOOR(x,0); 
.................... } 
.................... // Following 2 functions are overloaded functions of floor() for PCD 
.................... // Overloaded function floor() for data type - Float48 
.................... #if defined(__PCD__) 
.................... float48 floor(float48 x) 
.................... { 
....................    return CEIL_FLOOR(x, 0); 
.................... } 
....................  
.................... // Overloaded function floor() for data type - Float64 
.................... float64 floor(float64 x) 
.................... { 
....................    return CEIL_FLOOR(x, 0); 
.................... } 
.................... #endif 
....................  
....................  
.................... //////////////////////////////////////////////////////////////////////////// 
.................... //   float ceil(float x) 
.................... //////////////////////////////////////////////////////////////////////////// 
.................... // Description : rounds up the number x. 
.................... // Date : N/A 
.................... // 
.................... float32 ceil(float32 x) 
.................... { 
....................    return CEIL_FLOOR(x, 1); 
.................... } 
.................... // Following 2 functions are overloaded functions of ceil() for PCD 
.................... // Overloaded function ceil() for data type - Float48 
.................... #if defined(__PCD__) 
.................... float48 ceil(float48 x) 
.................... { 
....................    return CEIL_FLOOR(x, 1); 
.................... } 
....................  
.................... // Overloaded function ceil() for data type - Float64 
.................... float64 ceil(float64 x) 
.................... { 
....................    return CEIL_FLOOR(x, 1); 
.................... } 
.................... #endif 
....................  
....................  //////////////////////////////////////////////////////////////////////////// 
.................... //   float fabs(float x) 
.................... //////////////////////////////////////////////////////////////////////////// 
.................... // Description : Computes the absolute value of floating point number x 
.................... // Returns : returns the absolute value of x 
.................... // Date : N/A 
.................... // 
.................... #define fabs abs 
....................  
.................... //////////////////////////////////////////////////////////////////////////// 
.................... //   float fmod(float x) 
.................... //////////////////////////////////////////////////////////////////////////// 
.................... // Description : Computes the floating point remainder of x/y 
.................... // Returns : returns the value of x= i*y, for some integer i such that, if y 
.................... // is non zero, the result has the same isgn of x na dmagnitude less than the 
.................... // magnitude of y. If y is zero then a domain error occurs. 
.................... // Date : N/A 
.................... // 
....................  
.................... float fmod(float32 x,float32 y) 
.................... { 
....................    float32 i; 
....................    if (y!=0.0) 
....................    { 
....................       i=(x/y < 0.0)? ceil(x/y): floor(x/y); 
....................       return(x-(i*y)); 
....................    } 
....................    else 
....................    { 
....................    #ifdef _ERRNO 
....................    { 
....................       errno=EDOM; 
....................    } 
....................    #endif 
....................    } 
.................... } 
.................... //Overloaded function for fmod() for PCD 
.................... // Overloaded function fmod() for data type - Float48 
.................... #if defined(__PCD__) 
.................... float48 fmod(float48 x,float48 y) 
.................... { 
....................    float48 i; 
....................    if (y!=0.0) 
....................    { 
....................       i=(x/y < 0.0)? ceil(x/y): floor(x/y); 
....................       return(x-(i*y)); 
....................    } 
....................    else 
....................    { 
....................    #ifdef _ERRNO 
....................    { 
....................       errno=EDOM; 
....................    } 
....................    #endif 
....................    } 
.................... } 
.................... // Overloaded function fmod() for data type - Float64 
.................... float64 fmod(float64 x,float64 y) 
.................... { 
....................    float64 i; 
....................    if (y!=0.0) 
....................    { 
....................       i=(x/y < 0.0)? ceil(x/y): floor(x/y); 
....................       return(x-(i*y)); 
....................    } 
....................    else 
....................    { 
....................    #ifdef _ERRNO 
....................    { 
....................       errno=EDOM; 
....................    } 
....................    #endif 
....................    } 
.................... } 
.................... #endif 
.................... //////////////////// Exponential and logarithmic functions //////////////////// 
.................... //////////////////////////////////////////////////////////////////////////// 
.................... //   float exp(float x) 
.................... //////////////////////////////////////////////////////////////////////////// 
.................... // Description : returns the value (e^x) 
.................... // Date : N/A 
.................... // 
.................... #define LN2 0.6931471805599453 
.................... #define LN2_INV 1.4426950408889634073 
....................  
.................... float const pe[6] = {0.000207455774, 0.00127100575, 0.00965065093, 
....................                      0.0554965651,  0.240227138,  0.693147172}; 
....................  
....................  
.................... float32 exp(float32 x) 
.................... { 
....................    float32 y, res, r; 
....................    #if defined(__PCD__) 
....................    int8 data1; 
....................    #endif 
....................    signed int8 n; 
....................    int1 s; 
....................    #ifdef _ERRNO 
....................    if(x > 88.722838) 
....................    { 
....................       errno=ERANGE; 
....................       return(0); 
....................    } 
....................    #endif 
....................    n = (signed int16)(x*LN2_INV); 
....................    s = 0; 
....................    y = x; 
....................  
....................    if (x < 0) 
....................    { 
....................       s = 1; 
....................       n = -n; 
....................       y = -y; 
....................    } 
....................  
....................    res = 0.0; 
.................... #if !defined(__PCD__) 
....................    *((unsigned int8 *)(&res)) = n + 0x7F; 
.................... #endif 
....................  
.................... #if defined(__PCD__)  // Takes care of IEEE format for PCD 
....................    data1 = n+0x7F; 
....................    if(bit_test(data1,0)) 
....................    bit_set(*(((unsigned int8 *)(&res)+2)),7); 
....................    rotate_right(&data1,1); 
....................    bit_clear(data1,7); 
....................    *(((unsigned int8 *)(&res)+3)) = data1; 
.................... #endif 
....................  
....................    y = y*LN2_INV - (float32)n; 
....................  
....................    r = pe[0]*y + pe[1]; 
....................    r = r*y + pe[2]; 
....................    r = r*y + pe[3]; 
....................    r = r*y + pe[4]; 
....................    r = r*y + pe[5]; 
....................  
....................    res = res*(1.0 + y*r); 
....................  
....................    if (s) 
....................       res = 1.0/res; 
....................    return(res); 
.................... } 
....................  
....................  
.................... //Overloaded function for exp() for PCD 
.................... // Overloaded function exp() for data type - Float48 
.................... #if defined(__PCD__) 
.................... float48 exp(float48 x) 
.................... { 
....................    float48 y, res, r; 
....................    int8 data1; 
....................    signed int8 n; 
....................    int1 s; 
....................    #ifdef _ERRNO 
....................    if(x > 88.722838) 
....................    { 
....................       errno=ERANGE; 
....................       return(0); 
....................    } 
....................    #endif 
....................    n = (signed int16)(x*LN2_INV); 
....................    s = 0; 
....................    y = x; 
....................  
....................    if (x < 0) 
....................    { 
....................       s = 1; 
....................       n = -n; 
....................       y = -y; 
....................    } 
....................  
....................    res = 0.0; 
....................  
....................    data1 = n+0x7F; 
....................    if(bit_test(data1,0)) 
....................    bit_set(*(((unsigned int8 *)(&res)+4)),7); 
....................    rotate_right(&data1,1); 
....................    bit_clear(data1,7); 
....................    *(((unsigned int8 *)(&res)+5)) = data1; 
....................  
....................    y = y*LN2_INV - (float48)n; 
....................  
....................    r = pe[0]*y + pe[1]; 
....................    r = r*y + pe[2]; 
....................    r = r*y + pe[3]; 
....................    r = r*y + pe[4]; 
....................    r = r*y + pe[5]; 
....................  
....................    res = res*(1.0 + y*r); 
....................  
....................    if (s) 
....................       res = 1.0/res; 
....................    return(res); 
.................... } 
....................  
.................... // Overloaded function exp() for data type - Float64 
.................... float64 const pe_64[12] ={9.30741400474913e-011,-4.28655416283316e-011, 
....................                           8.71486547014137e-009,9.84458531538385e-008, 
....................                           1.32588296983536e-006,1.52489283823016e-005, 
....................                           0.000154037598423921,0.00133335487036216, 
....................                           0.00961812936407326,0.0555041086222122, 
....................                           0.240226506962827,0.693147180559823}; 
....................  
.................... float64 exp(float64 x) 
.................... { 
....................    float64 y, res, r; 
....................    unsigned int16 data1, data2; 
....................    unsigned int16 *p; 
....................    signed int16 n; 
....................    int1 s; 
....................    #ifdef _ERRNO 
....................    if(x > 709.7827128) 
....................    { 
....................       errno=ERANGE; 
....................       return(0); 
....................    } 
....................    #endif 
....................    y = x*LN2_INV; 
....................    n = (signed int16)y; 
....................    s = 0; 
....................    y = x; 
....................  
....................    if (x < 0) 
....................    { 
....................       s = 1; 
....................       n = -n; 
....................       y = -y; 
....................    } 
....................  
....................    res = 0.0; 
....................  
.................... #if !defined(__PCD__) 
....................    *((unsigned int16 *)(&res)) = n + 0x7F; 
.................... #endif 
....................    p= (((unsigned int16 *)(&res))+3); 
....................    data1 = *p; 
....................    data2 = *p;    
....................    data1 = n + 0x3FF; 
....................    data1 = data1 <<4; 
....................    if(bit_test(data2,15)) 
....................    bit_set(data1,15); 
....................    data2 = data2 & 0x000F; 
....................    data1 ^= data2; 
....................  
....................    *(((unsigned int16 *)(&res)+3)) = data1; 
....................  
....................  
....................    y = y*LN2_INV - (float64)n; 
....................  
....................    r = pe_64[0]*y + pe_64[1]; 
....................    r = r*y + pe_64[2]; 
....................    r = r*y + pe_64[3]; 
....................    r = r*y + pe_64[4]; 
....................    r = r*y + pe_64[5]; 
....................    r = r*y + pe_64[6]; 
....................    r = r*y + pe_64[7]; 
....................    r = r*y + pe_64[8]; 
....................    r = r*y + pe_64[9]; 
....................    r = r*y + pe_64[10]; 
....................    r = r*y + pe_64[11]; 
....................     
....................    res = res*(1.0 + y*r); 
....................  
....................    if (s) 
....................       res = 1.0/res; 
....................    return(res); 
.................... } 
.................... #ENDIF 
....................  
....................  
.................... /************************************************************/ 
....................  
.................... float32 const pl[4] = {-1.080310025160955, 1.999999947089217}; 
.................... float32 const ql[4] = {0.091284365719509, -0.873491916557671}; 
....................  
.................... //////////////////////////////////////////////////////////////////////////// 
.................... //   float log(float x) 
.................... //////////////////////////////////////////////////////////////////////////// 
.................... // Description : returns the the natural log of x 
.................... // Date : N/A 
.................... // 
.................... float32 log(float32 x) 
.................... { 
....................    float32 y, res, r, y2; 
....................    #if defined(__PCD__) 
....................    unsigned int8  data1,data2; 
....................    #endif 
....................    signed int8 n; 
....................    #ifdef _ERRNO 
....................    if(x <0) 
....................    { 
....................       errno=EDOM; 
....................    } 
....................    if(x ==0) 
....................    { 
....................       errno=ERANGE; 
....................       return(0); 
....................    } 
....................    #endif 
....................    y = x; 
....................  
....................    if (y != 1.0) 
....................    { 
.................... #if !defined(__PCD__) 
....................     *((unsigned int8 *)(&y)) = 0x7E;  
.................... #endif 
....................  
.................... #if defined(__PCD__) // Takes care of IEEE format 
....................    data2 = *(((unsigned int8 *)(&y))+3); 
....................    *(((unsigned int8 *)(&y))+3) = 0x3F; 
....................    data1 = *(((unsigned int8 *)(&y))+2); 
....................    bit_clear(data1,7); 
....................    *(((unsigned int8 *)(&y))+2) = data1; 
....................    if(bit_test(data2,7)) 
....................      bit_set(*(((unsigned int8 *)(&y))+3),7); 
.................... #endif 
....................  
....................       y = (y - 1.0)/(y + 1.0); 
....................  
....................       y2=y*y; 
....................  
....................       res = pl[0]*y2 + pl[1]; 
....................  
....................       r = ql[0]*y2 + ql[1]; 
....................       r = r*y2 + 1.0; 
....................  
....................       res = y*res/r; 
.................... #if !defined(__PCD__) 
....................       n = *((unsigned int8 *)(&x)) - 0x7E; 
.................... #endif 
.................... #if defined(__PCD__)  
....................     data1 = *(((unsigned int8 *)(&x)+3)); 
....................     rotate_left(&data1,1); 
....................     data2 = *(((unsigned int8 *)(&x)+2)); 
....................     if(bit_test (data2,7)) 
....................       bit_set(data1,0); 
....................     n = data1 - 0x7E; 
.................... #endif 
....................  
....................       if (n<0)  
....................          r = -(float32)-n; 
....................       else 
....................          r = (float32)n; 
....................  
....................       res += r*LN2; 
....................    } 
....................  
....................    else 
....................       res = 0.0; 
....................  
....................    return(res); 
.................... } 
....................  
.................... //Overloaded function for log() for PCD 
.................... // Overloaded function log() for data type - Float48 
.................... #if defined(__PCD__) 
.................... // Overloaded function log() for data type - float64 
.................... float64 const pl_64[4] = {-0.145694052150681, 1.365485300000370, 
....................                           -3.120535668274329, 2.000000000000000}; 
....................  
.................... float64 const ql_64[4] = {0.006047500465908, -0.208298281937234, 
....................                           1.113943039156721, -1.893601167470470}; 
....................  
.................... float48 log(float48 x) 
.................... { 
....................    float48 y, res, r, y2; 
....................    unsigned int8  data1,data2; 
....................    signed int8 n; 
.................... #ifdef _ERRNO 
....................    if(x <0) 
....................    { 
....................       errno=EDOM; 
....................    } 
....................    if(x ==0) 
....................    { 
....................       errno=ERANGE; 
....................       return(0); 
....................    } 
.................... #endif 
....................    y = x; 
....................  
....................    if (y != 1.0) 
....................    { 
....................  
.................... #if !defined(__PCD__) 
....................       *((unsigned int8 *)(&y)) = 0x7E;  
.................... #endif 
....................       data2 = *(((unsigned int8 *)(&y))+5); 
....................       *(((unsigned int8 *)(&y))+5) = 0x3F; 
....................       data1 = *(((unsigned int8 *)(&y))+4); 
....................       bit_clear(data1,7); 
....................       *(((unsigned int8 *)(&y))+4) = data1; 
....................  
....................       if(bit_test(data2,7)) 
....................       bit_set(*(((unsigned int8 *)(&y))+4),7); 
....................       y = (y - 1.0)/(y + 1.0); 
....................  
....................       y2=y*y; 
....................  
....................       res = pl_64[0]*y2 + pl_64[1]; 
....................       res = res*y2 + pl_64[2]; 
....................       res = res*y2 + pl_64[3]; 
....................  
....................       r = ql_64[0]*y2 + ql_64[1]; 
....................       r = r*y2 + ql_64[2]; 
....................       r = r*y2 + ql_64[3]; 
....................       r = r*y2 + 1.0;  
....................       res = y*res/r; 
....................  
....................       data1 = *(((unsigned int8 *)(&x)+5)); 
....................       rotate_left(&data1,1); 
....................       data2 = *(((unsigned int8 *)(&x)+4)); 
....................       if(bit_test (data2,7)) 
....................       bit_set(data1,0); 
....................        
....................       n = data1 - 0x7E; 
....................  
....................       if (n<0) 
....................       r = -(float48)-n; 
....................       else 
....................       r = (float48)n; 
....................  
....................       res += r*LN2; 
....................    } 
....................  
....................    else 
....................    res = 0.0; 
....................  
....................    return(res); 
.................... } 
....................  
.................... float64 log(float64 x) 
.................... { 
....................    float64 y, res, r, y2; 
....................    unsigned int16  data1,data2; 
....................    unsigned int16 *p; 
....................    signed int16 n; 
....................    #ifdef _ERRNO 
....................    if(x <0) 
....................    { 
....................       errno=EDOM; 
....................    } 
....................    if(x ==0) 
....................    { 
....................       errno=ERANGE; 
....................       return(0); 
....................    } 
....................    #endif 
....................    y = x; 
....................  
....................    if (y != 1.0) 
....................    { 
....................    #if !defined(__PCD__) 
....................        *((unsigned int8 *)(&y)) = 0x7E;  
....................    #endif 
....................       p= (((unsigned int16 *)(&y))+3); 
....................       data1 = *p; 
....................       data2 = *p; 
....................       data1 = 0x3FE; 
....................       data1 = data1 <<4; 
....................       if(bit_test (data2,15)) 
....................          bit_set(data1,15); 
....................       data2 = data2 & 0x000F; 
....................       data1 ^=data2; 
....................  
....................       *p = data1; 
....................  
....................       y = (y - 1.0)/(y + 1.0); 
....................  
....................       y2=y*y; 
....................  
....................       res = pl_64[0]*y2 + pl_64[1]; 
....................       res = res*y2 + pl_64[2]; 
....................       res = res*y2 + pl_64[3]; 
....................  
....................       r = ql_64[0]*y2 + ql_64[1]; 
....................       r = r*y2 + ql_64[2]; 
....................       r = r*y2 + ql_64[3]; 
....................       r = r*y2 + 1.0; 
....................  
....................       res = y*res/r; 
....................   
....................       p= (((unsigned int16 *)(&x))+3); 
....................       data1 = *p; 
....................       bit_clear(data1,15); 
....................       data1 = data1 >>4;     
....................       n = data1 - 0x3FE; 
....................  
....................  
....................       if (n<0) 
....................          r = -(float64)-n; 
....................       else 
....................          r = (float64)n; 
....................  
....................       res += r*LN2; 
....................    } 
....................  
....................    else 
....................       res = 0.0; 
....................  
....................    return(res); 
.................... } 
.................... #endif 
....................  
....................  
.................... #define LN10 2.3025850929940456 
.................... #define LN10_INV 0.4342944819032518276 
....................  
.................... //////////////////////////////////////////////////////////////////////////// 
.................... //   float log10(float x) 
.................... //////////////////////////////////////////////////////////////////////////// 
.................... // Description : returns the the log base 10 of x 
.................... // Date : N/A 
.................... // 
.................... float32 log10(float32 x) 
.................... { 
....................    float32 r; 
....................  
....................    r = log(x); 
....................    r = r*LN10_INV; 
....................    return(r); 
.................... } 
....................  
.................... //Overloaded functions for log10() for PCD 
.................... // Overloaded function log10() for data type - Float48 
.................... #if defined(__PCD__) 
.................... float48 log10(float48 x) 
.................... { 
....................    float48 r; 
....................  
....................    r = log(x); 
....................    r = r*LN10_INV; 
....................    return(r); 
.................... } 
....................  
.................... // Overloaded function log10() for data type - Float64 
.................... float64 log10(float64 x) 
.................... { 
....................    float64 r; 
....................  
....................    r = log(x); 
....................    r = r*LN10_INV; 
....................    return(r); 
.................... } 
.................... #endif 
.................... //////////////////////////////////////////////////////////////////////////// 
.................... //   float modf(float x) 
.................... //////////////////////////////////////////////////////////////////////////// 
.................... // Description :breaks the argument value int integral and fractional parts, 
.................... // ach of which have the same sign as the argument.  It stores the integral part 
.................... // as a float in the object pointed to by the iptr 
.................... // Returns : returns the signed fractional part of value. 
.................... // Date : N/A 
.................... // 
....................  
.................... float32 modf(float32 value,float32 *iptr) 
.................... { 
....................    *iptr=(value < 0.0)? ceil(value): floor(value); 
....................    return(value - *iptr); 
.................... } 
.................... //Overloaded functions for modf() for PCD 
.................... // Overloaded function modf() for data type - Float48 
.................... #if defined(__PCD__) 
.................... float48 modf(float48 value,float48 *iptr) 
.................... { 
....................    *iptr=(value < 0.0)? ceil(value): floor(value); 
....................    return(value - *iptr); 
.................... } 
.................... // Overloaded function modf() for data type - Float64 
.................... float64 modf(float64 value,float64 *iptr) 
.................... { 
....................    *iptr=(value < 0.0)? ceil(value): floor(value); 
....................    return(value - *iptr); 
.................... } 
.................... #endif 
....................  
.................... //////////////////////////////////////////////////////////////////////////// 
.................... //   float pwr(float x,float y) 
.................... //////////////////////////////////////////////////////////////////////////// 
.................... // Description : returns the value (x^y) 
.................... // Date : N/A 
.................... // Note : 0 is returned when the function will generate an imaginary number 
.................... // 
.................... float32 pwr(float32 x,float32 y) 
.................... { 
....................    if(0 > x && fmod(y, 1) == 0) { 
....................       if(fmod(y, 2) == 0) { 
....................          return (exp(log(-x) * y)); 
....................       } else { 
....................          return (-exp(log(-x) * y)); 
....................       } 
....................    } else if(0 > x && fmod(y, 1) != 0) { 
....................       return 0; 
....................    } else { 
....................       if(x != 0 || 0 >= y) { 
....................          return (exp(log(x) * y)); 
....................       } 
....................    } 
.................... } 
.................... //Overloaded functions for pwr() for PCD 
.................... // Overloaded function pwr() for data type - Float48 
.................... #if defined(__PCD__) 
.................... float48 pwr(float48 x,float48 y) 
.................... { 
....................    if(0 > x && fmod(y, 1) == 0) { 
....................       if(fmod(y, 2) == 0) { 
....................          return (exp(log(-x) * y)); 
....................       } else { 
....................          return (-exp(log(-x) * y)); 
....................       } 
....................    } else if(0 > x && fmod(y, 1) != 0) { 
....................       return 0; 
....................    } else { 
....................       if(x != 0 || 0 >= y) { 
....................          return (exp(log(x) * y)); 
....................       } 
....................    } 
.................... } 
.................... // Overloaded function pwr() for data type - Float64 
.................... float64 pwr(float64 x,float64 y) 
.................... { 
....................    if(0 > x && fmod(y, 1) == 0) { 
....................       if(fmod(y, 2) == 0) { 
....................          return (exp(log(-x) * y)); 
....................       } else { 
....................          return (-exp(log(-x) * y)); 
....................       } 
....................    } else if(0 > x && fmod(y, 1) != 0) { 
....................       return 0; 
....................    } else { 
....................       if(x != 0 || 0 >= y) { 
....................          return (exp(log(x) * y)); 
....................       } 
....................    } 
.................... } 
.................... #endif 
....................  
.................... //////////////////// Power functions //////////////////// 
....................  
.................... //////////////////////////////////////////////////////////////////////////// 
.................... //   float pow(float x,float y) 
.................... //////////////////////////////////////////////////////////////////////////// 
.................... // Description : returns the value (x^y) 
.................... // Date : N/A 
.................... // Note : 0 is returned when the function will generate an imaginary number 
.................... // 
.................... float32 pow(float32 x,float32 y) 
.................... { 
....................    if(0 > x && fmod(y, 1) == 0) { 
....................       if(fmod(y, 2) == 0) { 
....................          return (exp(log(-x) * y)); 
....................       } else { 
....................          return (-exp(log(-x) * y)); 
....................       } 
....................    } else if(0 > x && fmod(y, 1) != 0) { 
....................       return 0; 
....................    } else { 
....................       if(x != 0 || 0 >= y) { 
....................          return (exp(log(x) * y)); 
....................       } 
....................    } 
.................... } 
.................... //Overloaded functions for pow() for PCD 
.................... // Overloaded function for pow() data type - Float48 
.................... #if defined(__PCD__) 
.................... float48 pow(float48 x,float48 y) 
.................... { 
....................    if(0 > x && fmod(y, 1) == 0) { 
....................       if(fmod(y, 2) == 0) { 
....................          return (exp(log(-x) * y)); 
....................       } else { 
....................          return (-exp(log(-x) * y)); 
....................       } 
....................    } else if(0 > x && fmod(y, 1) != 0) { 
....................       return 0; 
....................    } else { 
....................       if(x != 0 || 0 >= y) { 
....................          return (exp(log(x) * y)); 
....................       } 
....................    } 
.................... } 
....................  
.................... // Overloaded function pow() for data type - Float64 
.................... float64 pow(float64 x,float64 y) 
.................... { 
....................    if(0 > x && fmod(y, 1) == 0) { 
....................       if(fmod(y, 2) == 0) { 
....................          return (exp(log(-x) * y)); 
....................       } else { 
....................          return (-exp(log(-x) * y)); 
....................       } 
....................    } else if(0 > x && fmod(y, 1) != 0) { 
....................       return 0; 
....................    } else { 
....................       if(x != 0 || 0 >= y) { 
....................          return (exp(log(x) * y)); 
....................       } 
....................    } 
.................... } 
.................... #endif 
....................  
.................... //////////////////////////////////////////////////////////////////////////// 
.................... //   float sqrt(float x) 
.................... //////////////////////////////////////////////////////////////////////////// 
.................... // Description : returns the square root of x 
.................... // Date : N/A 
.................... // 
.................... float32 sqrt(float32 x) 
.................... { 
....................    float32 y, res; 
....................    #if defined(__PCD__) 
....................    unsigned int16 data1,data2; 
....................    #endif 
....................    unsigned int8 *p; 
....................  
....................    #ifdef _ERRNO 
....................    if(x < 0) 
....................    { 
....................       errno=EDOM; 
....................    } 
....................    #endif 
....................  
....................    if( x<=0.0) 
....................       return(0.0); 
....................  
....................    y=x; 
....................     
....................    #if !defined(__PCD__) 
....................     p=&y; 
....................    (*p)=(unsigned int8)((((unsigned int16)(*p)) + 127) >> 1); 
....................    #endif 
....................     
....................    #if defined(__PCD__) 
....................     p = (((unsigned int8 *)(&y))+3); 
....................     data1 = *(((unsigned int8 *)(&y))+3); 
....................     data2 = *(((unsigned int8 *)(&y))+2); 
....................     rotate_left(&data1,1);     
....................     if(bit_test(data2,7))     
....................        bit_set(data1,0);     
....................     data1 = ((data1+127) >>1); 
....................     bit_clear(data2,7); 
....................     if(bit_test(data1,0)) 
....................        bit_set(data2,7); 
....................     data1 = data1 >>1; 
....................     *(((unsigned int8 *)(&y))+3) = data1; 
....................     *(((unsigned int8 *)(&y))+2) = data2; 
....................      
....................   #endif 
....................  
....................    do { 
....................       res=y; 
....................       y+=(x/y); 
....................  
....................       #if !defined(__PCD__) 
....................      (*p)--; 
....................    #endif 
....................     
....................    #if defined(__PCD__) 
....................     data1 = *(((unsigned int8 *)(&y))+3); 
....................     data2 = *(((unsigned int8 *)(&y))+2); 
....................     rotate_left(&data1,1); 
....................     if(bit_test(data2,7)) 
....................        bit_set(data1,0);     
....................     data1--; 
....................     bit_clear(data2,7); 
....................     if(bit_test(data1,0)) 
....................        bit_set(data2,7); 
....................     data1 = data1 >>1; 
....................     *(((unsigned int8 *)(&y))+3) = data1; 
....................     *(((unsigned int8 *)(&y))+2) = data2; 
....................      
....................   #endif 
....................    } while(res != y); 
....................  
....................    return(res); 
.................... } 
.................... //Overloaded functions for sqrt() for PCD 
.................... // Overloaded function sqrt() for data type - Float48 
.................... #if defined(__PCD__) 
.................... float48 sqrt(float48 x) 
.................... { 
....................    float48 y, res; 
....................    unsigned int16 data1,data2; 
....................    unsigned int8 *p; 
....................  
....................    #ifdef _ERRNO 
....................    if(x < 0) 
....................    { 
....................       errno=EDOM; 
....................    } 
....................    #endif 
....................  
....................    if( x<=0.0) 
....................       return(0.0); 
....................  
....................    y=x; 
....................     
....................    #if !defined(__PCD__) 
....................     p=&y; 
....................    (*p)=(unsigned int8)((((unsigned int16)(*p)) + 127) >> 1); 
....................    #endif 
....................     
....................    #if defined(__PCD__) 
....................     p = (((unsigned int8 *)(&y))+5); 
....................     data1 = *(((unsigned int8 *)(&y))+5); 
....................     data2 = *(((unsigned int8 *)(&y))+4); 
....................     rotate_left(&data1,1); 
....................     if(bit_test(data2,7)) 
....................        bit_set(data1,0);     
....................     data1 = ((data1+127) >>1); 
....................     bit_clear(data2,7); 
....................     if(bit_test(data1,0)) 
....................        bit_set(data2,7); 
....................     data1 = data1 >>1; 
....................     *(((unsigned int8 *)(&y))+5) = data1; 
....................     *(((unsigned int8 *)(&y))+4) = data2; 
....................      
....................   #endif 
....................  
....................    do { 
....................       res=y; 
....................       y+=(x/y); 
....................  
....................       #if !defined(__PCD__) 
....................      (*p)--; 
....................    #endif 
....................     
....................     data1 = *(((unsigned int8 *)(&y))+5); 
....................     data2 = *(((unsigned int8 *)(&y))+4); 
....................     rotate_left(&data1,1); 
....................     if(bit_test(data2,7)) 
....................        bit_set(data1,0);     
....................     data1--; 
....................     bit_clear(data2,7); 
....................     if(bit_test(data1,0)) 
....................        bit_set(data2,7); 
....................     data1 = data1 >>1; 
....................     *(((unsigned int8 *)(&y))+5) = data1; 
....................     *(((unsigned int8 *)(&y))+4) = data2; 
....................      
....................    } while(res != y); 
....................  
....................    return(res); 
.................... } 
....................  
.................... // Overloaded function sqrt() for data type - Float64 
.................... float64 sqrt(float64 x) 
.................... { 
....................    float64 y, res; 
....................    unsigned int16 *p; 
....................    unsigned int16 temp1,temp2; 
....................  
....................    #ifdef _ERRNO 
....................    if(x < 0) 
....................    { 
....................       errno=EDOM; 
....................    } 
....................    #endif 
....................  
....................    if( x<=0.0) 
....................       return(0.0); 
....................  
....................    y=x; 
....................    p= (((unsigned int16 *)(&y))+3); 
....................    temp1 = *p; 
....................    temp2 = *p; 
....................    bit_clear(temp1,15); 
....................    temp1 = (temp1>>4)+1023; 
....................    temp1 = temp1 >> 1; 
....................    temp1 = (temp1<<4) & 0xFFF0; 
....................    if(bit_test(temp2,15)) 
....................       bit_set(temp1,15); 
....................    temp2 = temp2 & 0x000F; 
....................    temp1 ^= temp2; 
....................     
....................    (*p) = temp1; 
....................     
....................    do { 
....................       res=y; 
....................       y+=(x/y); 
....................      temp1 = *p; 
....................      temp2 = *p; 
....................      bit_clear(temp1,15); 
....................      temp1 = (temp1>>4); 
....................      temp1--; 
....................      temp1 = (temp1<<4) & 0xFFF0; 
....................      if(bit_test(temp2,15)) 
....................         bit_set(temp1,15); 
....................      temp2 = temp2 & 0x000F; 
....................      temp1 ^= temp2; 
....................      (*p) = temp1; 
....................  
....................    } while(res != y); 
....................  
....................    return(res); 
.................... } 
.................... #endif 
....................  
.................... ////////////////////////////// Trig Functions ////////////////////////////// 
.................... #ifdef PI_DIV_BY_TWO_INV 
.................... #undef PI_DIV_BY_TWO_INV 
.................... #endif 
.................... #define PI_DIV_BY_TWO_INV 0.63661977236758134 
.................... #ifdef PI_DIV_BY_TWO 
.................... #undef PI_DIV_BY_TWO 
.................... #endif 
.................... #define PI_DIV_BY_TWO   1.5707963267948966 
.................... #ifdef TWOBYPI 
.................... #undef TWOBYPI 
.................... #endif 
.................... #define TWOBYPI          0.6366197723675813 
....................  
.................... //////////////////////////////////////////////////////////////////////////// 
.................... //   float cos(float x) 
.................... //////////////////////////////////////////////////////////////////////////// 
.................... // Description : returns the cosine value of the angle x, which is in radian 
.................... // Date : 9/20/2001 
.................... // 
.................... float32 cos(float32 x) 
.................... { 
....................    float32 y, t, t2 = 1.0; 
....................    unsigned int8 quad, i; 
....................    float32 frac; 
....................    float32 p[5] = {                    //by the series definition for cosine 
....................       -0.49999999456337096,            // sum ( ( (-1)^n * x^2n )/(2n)! ) 
....................        0.04166663896921267, 
....................       -0.00138883894522527, 
....................        0.00002476138231734, 
....................       -0.00000026070414770 
....................       //-0.00000000001147, 
....................       // 0.00000000000005 
....................    }; 
....................  
....................    if (x < 0) x = -x;                  // absolute value of input 
....................  
....................    quad = (unsigned int8)(x * PI_DIV_BY_TWO_INV);    // quadrant 
....................    frac = (x * PI_DIV_BY_TWO_INV) - quad;  // fractional part of input 
....................    quad = quad % 4;                    // quadrant (0 to 3) 
....................  
....................    if (quad == 0 || quad == 2) 
....................       t = frac * PI_DIV_BY_TWO; 
....................    else if (quad == 1) 
....................       t = (1-frac) * PI_DIV_BY_TWO; 
....................    else // should be 3 
....................       t = (frac-1) * PI_DIV_BY_TWO; 
....................  
....................    y = 1.0; 
....................    t = t * t; 
....................    for (i = 0; i <= 4; i++) 
....................    { 
....................       t2 = t2 * t; 
....................       y = y + p[i] * t2; 
....................    } 
....................  
....................    if (quad == 2 || quad == 1) 
....................       y = -y;  // correct sign 
....................  
....................    return (y); 
.................... } 
....................  
....................  
.................... //Overloaded functions for cos() for PCD 
.................... // Overloaded function cos() for data type - Float48 
.................... #if defined(__PCD__) 
.................... float48 cos(float48 x) 
.................... { 
....................    float48 y, t, t2 = 1.0; 
....................    unsigned int8 quad, i; 
....................    float48 frac; 
....................    float48 p[6] = {                    //by the series definition for cosine 
....................       -0.5,                            // sum ( ( (-1)^n * x^2n )/(2n)! ) 
....................        0.04166666666667, 
....................       -0.00138888888889, 
....................        0.00002480158730, 
....................       -0.00000027557319, 
....................        0.00000000208767, 
....................       //-0.00000000001147, 
....................       // 0.00000000000005 
....................    }; 
....................  
....................    if (x < 0) x = -x;                  // absolute value of input 
....................  
....................    quad = (unsigned int8)(x * PI_DIV_BY_TWO_INV);    // quadrant 
....................    frac = (x * PI_DIV_BY_TWO_INV) - quad;  // fractional part of input 
....................    quad = quad % 4;                    // quadrant (0 to 3) 
....................  
....................    if (quad == 0 || quad == 2) 
....................       t = frac * PI_DIV_BY_TWO; 
....................    else if (quad == 1) 
....................       t = (1-frac) * PI_DIV_BY_TWO; 
....................    else // should be 3 
....................       t = (frac-1) * PI_DIV_BY_TWO; 
....................  
....................    y = 0.999999999781; 
....................    t = t * t; 
....................    for (i = 0; i <= 5; i++) 
....................    { 
....................       t2 = t2 * t; 
....................       y = y + p[i] * t2; 
....................    } 
....................  
....................    if (quad == 2 || quad == 1) 
....................       y = -y;  // correct sign 
....................  
....................    return (y); 
.................... } 
....................  
.................... // Overloaded function cos() for data type - Float64 
.................... float64 cos(float64 x) 
.................... { 
....................    float64 y, t, t2 = 1.0; 
....................    unsigned int8 quad, i; 
....................    float64 frac; 
....................    float64 p_64[9] = {               //by the series definition for cosine 
....................      -0.49999999999998740,           // sum ( ( (-1)^n * x^2n )/(2n)! )              
....................       0.04166666666656518, 
....................      -0.00138888888851691, 
....................       0.00002480158658490, 
....................      -0.00000027557239796, 
....................       0.00000000208715031, 
....................      -0.00000000001126577, 
....................       0.00000000000000427, 
....................       0.00000000000000372}; 
....................  
....................    if (x < 0) x = -x;                  // absolute value of input 
....................  
....................    quad = (unsigned int8)(x * PI_DIV_BY_TWO_INV);    // quadrant 
....................    frac = (x * PI_DIV_BY_TWO_INV) - quad;  // fractional part of input 
....................    quad = quad % 4;                    // quadrant (0 to 3) 
....................  
....................    if (quad == 0 || quad == 2) 
....................       t = frac * PI_DIV_BY_TWO; 
....................    else if (quad == 1) 
....................       t = (1-frac) * PI_DIV_BY_TWO; 
....................    else // should be 3 
....................       t = (frac-1) * PI_DIV_BY_TWO; 
....................  
....................    y = 1.0; 
....................    t = t * t; 
....................    for (i = 0; i <= 8; i++) 
....................    { 
....................       t2 = t2 * t; 
....................       y = y + p_64[i] * t2; 
....................    } 
....................  
....................    if (quad == 2 || quad == 1) 
....................       y = -y;  // correct sign 
....................  
....................    return (y); 
.................... } 
....................  
.................... #endif 
....................  
.................... //////////////////////////////////////////////////////////////////////////// 
.................... //   float sin(float x) 
.................... //////////////////////////////////////////////////////////////////////////// 
.................... // Description : returns the sine value of the angle x, which is in radian 
.................... // Date : 9/20/2001 
.................... // 
.................... float32 sin(float32 x) 
.................... { 
....................    return cos(x - PI_DIV_BY_TWO); 
.................... } 
....................  
.................... //Overloaded functions for sin() for PCD 
.................... // Overloaded function sin() for data type - Float48 
.................... #if defined(__PCD__) 
.................... float48 sin(float48 x) 
.................... { 
....................    return cos(x - PI_DIV_BY_TWO); 
.................... } 
....................  
.................... // Overloaded function sin() for data type - Float48 
.................... float64 sin(float64 x) 
.................... { 
....................    return cos(x - PI_DIV_BY_TWO); 
.................... } 
.................... #endif 
....................  
.................... //////////////////////////////////////////////////////////////////////////// 
.................... //   float tan(float x) 
.................... //////////////////////////////////////////////////////////////////////////// 
.................... // Description : returns the tangent value of the angle x, which is in radian 
.................... // Date : 9/20/2001 
.................... // 
.................... float32 tan(float32 x) 
.................... { 
....................    float32 c, s; 
....................  
....................    c = cos(x); 
....................    if (c == 0.0) 
....................       return (1.0e+36); 
....................  
....................    s = sin(x); 
....................    return(s/c); 
.................... } 
.................... //Overloaded functions for tan() for PCD 
.................... // Overloaded function tan() for data type - Float48 
.................... #if defined(__PCD__) 
.................... float48 tan(float48 x) 
.................... { 
....................    float48 c, s; 
....................  
....................    c = cos(x); 
....................    if (c == 0.0) 
....................       return (1.0e+36); 
....................  
....................    s = sin(x); 
....................    return(s/c); 
.................... } 
....................  
.................... // Overloaded function tan() for data type - Float48 
.................... float64 tan(float64 x) 
.................... { 
....................    float64 c, s; 
....................  
....................    c = cos(x); 
....................    if (c == 0.0) 
....................       return (1.0e+36); 
....................  
....................    s = sin(x); 
....................    return(s/c); 
.................... } 
.................... #endif 
....................  
.................... float32 const pas[3] = {0.49559947, -4.6145309, 5.6036290}; 
.................... float32 const qas[3] = {1.0000000,  -5.5484666, 5.6036290}; 
....................  
.................... float32 ASIN_COS(float32 x, unsigned int8 n) 
.................... { 
....................    float32 y, res, r, y2; 
....................    int1 s; 
....................    #ifdef _ERRNO 
....................    if(x <-1 || x > 1) 
....................    { 
....................       errno=EDOM; 
....................    } 
....................    #endif 
....................    s = 0; 
....................    y = x; 
....................  
....................    if (x < 0) 
....................    { 
....................       s = 1; 
....................       y = -y; 
....................    } 
....................  
....................    if (y > 0.5) 
....................    { 
....................       y = sqrt((1.0 - y)*0.5); 
....................       n += 2; 
....................    } 
....................  
....................    y2=y*y; 
....................  
....................    res = pas[0]*y2 + pas[1]; 
....................    res = res*y2 + pas[2]; 
....................  
....................    r = qas[0]*y2 + qas[1]; 
....................    r = r*y2 + qas[2]; 
....................  
....................    res = y*res/r; 
....................  
....................    if (n & 2)     // |x| > 0.5 
....................       res = PI_DIV_BY_TWO - 2.0*res; 
....................    if (s) 
....................       res = -res; 
....................    if (n & 1)           // take arccos 
....................       res = PI_DIV_BY_TWO - res; 
....................  
....................    return(res); 
.................... } 
....................  
....................  
.................... //Overloaded functions for ASIN_COS() for PCD 
.................... // Overloaded function ASIN_COS() for data type - Float48 
.................... #if defined(__PCD__) 
.................... float48 ASIN_COS(float48 x, unsigned int8 n) 
.................... { 
....................    float48 y, res, r, y2; 
....................    int1 s; 
....................    #ifdef _ERRNO 
....................    if(x <-1 || x > 1) 
....................    { 
....................       errno=EDOM; 
....................    } 
....................    #endif 
....................    s = 0; 
....................    y = x; 
....................  
....................    if (x < 0) 
....................    { 
....................       s = 1; 
....................       y = -y; 
....................    } 
....................  
....................    if (y > 0.5) 
....................    { 
....................       y = sqrt((1.0 - y)*0.5); 
....................       n += 2; 
....................    } 
....................  
....................    y2=y*y; 
....................  
....................    res = pas[0]*y2 + pas[1]; 
....................    res = res*y2 + pas[2]; 
....................  
....................    r = qas[0]*y2 + qas[1]; 
....................    r = r*y2 + qas[2]; 
....................  
....................    res = y*res/r; 
....................  
....................    if (n & 2)     // |x| > 0.5 
....................       res = PI_DIV_BY_TWO - 2.0*res; 
....................    if (s) 
....................       res = -res; 
....................    if (n & 1)           // take arccos 
....................       res = PI_DIV_BY_TWO - res; 
....................  
....................    return(res); 
.................... } 
....................  
.................... // Overloaded function ASIN_COS() for data type - Float64 
.................... double pas_64[5]={1.000000000000000,-2.069938587724477,1.421444580548907, 
....................                  -0.360690137621842,0.024929451660228}; 
....................  
.................... double qas_64[5]={-2.236605254391134,1.719212122946451,-0.524122954476133, 
....................                    0.052808872045749,-0.000662536036570}; 
....................                     
.................... float64 ASIN_COS(float64 x, unsigned int8 n) 
.................... { 
....................    float64 y, res, r, y2; 
....................    int1 s; 
....................    #ifdef _ERRNO 
....................    if(x <-1 || x > 1) 
....................    { 
....................       errno=EDOM; 
....................    } 
....................    #endif 
....................    s = 0; 
....................    y = x; 
....................  
....................    if (x < 0) 
....................    { 
....................       s = 1; 
....................       y = -y; 
....................    } 
....................  
....................    if (y > 0.5) 
....................    { 
....................       y = sqrt((1.0 - y)*0.5); 
....................       n += 2; 
....................    } 
....................  
....................    y2=y*y; 
....................  
....................    res = pas_64[4]*y2 + pas_64[3]; 
....................    res = res*y2 + pas_64[2]; 
....................    res = res*y2 + pas_64[1]; 
....................    res = res*y2 + pas_64[0]; 
....................  
....................    r = qas_64[4]*y2 + qas_64[3]; 
....................    r = r*y2 + qas_64[2]; 
....................    r = r*y2 + qas_64[1]; 
....................    r = r*y2 + qas_64[0]; 
....................    r = r*y2 + 1.0; 
....................  
....................    res = y*res/r; 
....................  
....................    if (n & 2)     // |x| > 0.5 
....................       res = PI_DIV_BY_TWO - 2.0*res; 
....................    if (s) 
....................       res = -res; 
....................    if (n & 1)           // take arccos 
....................       res = PI_DIV_BY_TWO - res; 
....................  
....................    return(res); 
.................... } 
.................... #endif 
....................  
.................... //////////////////////////////////////////////////////////////////////////// 
.................... //   float asin(float x) 
.................... //////////////////////////////////////////////////////////////////////////// 
.................... // Description : returns the arcsine value of the value x. 
.................... // Date : N/A 
.................... // 
.................... float32 asin(float32 x) 
.................... { 
....................    float32 r; 
....................  
....................    r = ASIN_COS(x, 0); 
....................    return(r); 
.................... } 
.................... //Overloaded functions for asin() for PCD 
.................... // Overloaded function asin() for data type - Float48 
.................... #if defined(__PCD__) 
.................... float48 asin(float48 x) 
.................... { 
....................    float48 r; 
....................  
....................    r = ASIN_COS(x, 0); 
....................    return(r); 
.................... } 
....................  
.................... // Overloaded function asin() for data type - Float64 
.................... float64 asin(float64 x) 
.................... { 
....................    float64 r; 
....................  
....................    r = ASIN_COS(x, 0); 
....................    return(r); 
.................... } 
.................... #endif 
....................  
.................... //////////////////////////////////////////////////////////////////////////// 
.................... //   float acos(float x) 
.................... //////////////////////////////////////////////////////////////////////////// 
.................... // Description : returns the arccosine value of the value x. 
.................... // Date : N/A 
.................... // 
.................... float32 acos(float32 x) 
.................... { 
....................    float32 r; 
....................  
....................    r = ASIN_COS(x, 1); 
....................    return(r); 
.................... } 
.................... //Overloaded functions for acos() for PCD 
.................... // Overloaded function acos() for data type - Float48 
.................... #if defined(__PCD__) 
.................... float48 acos(float48 x) 
.................... { 
....................    float48 r; 
....................  
....................    r = ASIN_COS(x, 1); 
....................    return(r); 
.................... } 
....................  
.................... // Overloaded function acos() for data type - Float64 
.................... float64 acos(float64 x) 
.................... { 
....................    float64 r; 
....................  
....................    r = ASIN_COS(x, 1); 
....................    return(r); 
.................... } 
.................... #endif 
....................  
.................... float32 const pat[4] = {0.17630401, 5.6710795, 22.376096, 19.818457}; 
.................... float32 const qat[4] = {1.0000000,  11.368190, 28.982246, 19.818457}; 
....................  
.................... //////////////////////////////////////////////////////////////////////////// 
.................... //   float atan(float x) 
.................... //////////////////////////////////////////////////////////////////////////// 
.................... // Description : returns the arctangent value of the value x. 
.................... // Date : N/A 
.................... // 
.................... float32 atan(float32 x) 
.................... { 
....................    float32 y, res, r; 
....................    int1 s, flag; 
....................  
....................    s = 0; 
....................    flag = 0; 
....................    y = x; 
....................  
....................    if (x < 0) 
....................    { 
....................       s = 1; 
....................       y = -y; 
....................    } 
....................  
....................    if (y > 1.0) 
....................    { 
....................       y = 1.0/y; 
....................       flag = 1; 
....................    } 
....................  
....................    res = pat[0]*y*y + pat[1]; 
....................    res = res*y*y + pat[2]; 
....................    res = res*y*y + pat[3]; 
....................  
....................    r = qat[0]*y*y + qat[1]; 
....................    r = r*y*y + qat[2]; 
....................    r = r*y*y + qat[3]; 
....................  
....................    res = y*res/r; 
....................  
....................  
....................    if (flag)                              // for |x| > 1 
....................       res = PI_DIV_BY_TWO - res; 
....................    if (s) 
....................       res = -res; 
....................  
....................    return(res); 
.................... } 
.................... //Overloaded functions for atan() for PCD 
.................... // Overloaded function atan() for data type - Float48 
.................... #if defined(__PCD__) 
.................... float48 atan(float48 x) 
.................... { 
....................    float48 y, res, r; 
....................    int1 s, flag; 
....................  
....................    s = 0; 
....................    flag = 0; 
....................    y = x; 
....................  
....................    if (x < 0) 
....................    { 
....................       s = 1; 
....................       y = -y; 
....................    } 
....................  
....................    if (y > 1.0) 
....................    { 
....................       y = 1.0/y; 
....................       flag = 1; 
....................    } 
....................  
....................    res = pat[0]*y*y + pat[1]; 
....................    res = res*y*y + pat[2]; 
....................    res = res*y*y + pat[3]; 
....................  
....................    r = qat[0]*y*y + qat[1]; 
....................    r = r*y*y + qat[2]; 
....................    r = r*y*y + qat[3]; 
....................  
....................    res = y*res/r; 
....................  
....................  
....................    if (flag)                              // for |x| > 1 
....................       res = PI_DIV_BY_TWO - res; 
....................    if (s) 
....................       res = -res; 
....................  
....................    return(res); 
.................... } 
....................  
.................... float64 pat_64[6]={0.999999999999999,2.249923645595566,1.771541617806449, 
....................                    0.579678874003185,0.072162702162882,0.002281100141660}; 
....................  
.................... float64 qat_64[6]={2.583256978928510,2.432627277466967,1.016760379885393, 
....................                    0.182482977188688,0.011155377971690,0.000100013019160}; 
.................... // Overloaded function atan() for data type - Float64 
.................... float64 atan(float64 x) 
.................... { 
....................    float64 y,y2, res, r; 
....................    int1 s, flag; 
....................  
....................    s = 0; 
....................    flag = 0; 
....................    y = x; 
....................  
....................    if (x < 0) 
....................    { 
....................       s = 1; 
....................       y = -y; 
....................    } 
....................  
....................    if (y > 1.0) 
....................    { 
....................       y = 1.0/y; 
....................       flag = 1; 
....................    } 
....................    y2 = y*y; 
....................    res = pat_64[5]*y2 + pat_64[4]; 
....................    res = res*y2 + pat_64[3]; 
....................    res = res*y2 + pat_64[2]; 
....................    res = res*y2 + pat_64[1]; 
....................    res = res*y2 + pat_64[0]; 
....................  
....................    r = qat_64[5]*y2 + qat_64[4]; 
....................    r = r*y2 + qat_64[3]; 
....................    r = r*y2 + qat_64[2]; 
....................    r = r*y2 + qat_64[1]; 
....................    r = r*y2 + qat_64[0]; 
....................    r = r*y2 + 1.0; 
....................  
....................    res = y*res/r; 
....................  
....................  
....................    if (flag)                              // for |x| > 1 
....................       res = PI_DIV_BY_TWO - res; 
....................    if (s) 
....................       res = -res; 
....................  
....................    return(res); 
.................... } 
.................... #endif 
....................  
.................... ///////////////////////////////////////////////////////////////////////////// 
.................... //   float atan2(float y, float x) 
.................... ///////////////////////////////////////////////////////////////////////////// 
.................... // Description :computes the principal value of arc tangent of y/x, using the 
.................... // signs of both the arguments to determine the quadrant of the return value 
.................... // Returns : returns the arc tangent of y/x. 
.................... // Date : N/A 
.................... // 
....................  
.................... float32 atan2(float32 y,float32 x) 
.................... { 
....................    float32 z; 
....................    int1 sign; 
....................    unsigned int8 quad; 
....................    sign=0; 
....................    quad=0; //quadrant 
....................    quad=((y<=0.0)?((x<=0.0)?3:4):((x<0.0)?2:1)); 
....................    if(y<0.0) 
....................    { 
....................       sign=1; 
....................       y=-y; 
....................    } 
....................    if(x<0.0) 
....................    { 
....................       x=-x; 
....................    } 
....................    if (x==0.0) 
....................    { 
....................       if(y==0.0) 
....................       { 
....................       #ifdef _ERRNO 
....................       { 
....................          errno=EDOM; 
....................       } 
....................       #endif 
....................       } 
....................       else 
....................       { 
....................          if(sign) 
....................          { 
....................          return (-(PI_DIV_BY_TWO)); 
....................          } 
....................          else 
....................          { 
....................          return (PI_DIV_BY_TWO); 
....................          } 
....................       } 
....................    } 
....................    else 
....................    { 
....................       z=y/x; 
....................       switch(quad) 
....................       { 
....................          case 1: 
....................          { 
....................             return atan(z); 
....................             break; 
....................          } 
....................          case 2: 
....................          { 
.................... //            return (atan(z)+PI_DIV_BY_TWO);  //2L3122 
....................             return (PI-atan(z)); 
....................             break; 
....................          } 
....................          case 3: 
....................          { 
....................             return (atan(z)-PI); 
....................             break; 
....................          } 
....................          case 4: 
....................          { 
....................             return (-atan(z)); 
....................             break; 
....................          } 
....................       } 
....................    } 
.................... } 
....................  
.................... //Overloaded functions for atan2() for PCD 
.................... // Overloaded function atan2() for data type - Float48 
.................... #if defined(__PCD__) 
.................... float48 atan2(float48 y,float48 x) 
.................... { 
....................    float48 z; 
....................    int1 sign; 
....................    unsigned int8 quad; 
....................    sign=0; 
....................    quad=0; //quadrant 
....................    quad=((y<=0.0)?((x<=0.0)?3:4):((x<0.0)?2:1)); 
....................    if(y<0.0) 
....................    { 
....................       sign=1; 
....................       y=-y; 
....................    } 
....................    if(x<0.0) 
....................    { 
....................       x=-x; 
....................    } 
....................    if (x==0.0) 
....................    { 
....................       if(y==0.0) 
....................       { 
....................       #ifdef _ERRNO 
....................       { 
....................          errno=EDOM; 
....................       } 
....................       #endif 
....................       } 
....................       else 
....................       { 
....................          if(sign) 
....................          { 
....................          return (-(PI_DIV_BY_TWO)); 
....................          } 
....................          else 
....................          { 
....................          return (PI_DIV_BY_TWO); 
....................          } 
....................       } 
....................    } 
....................    else 
....................    { 
....................       z=y/x; 
....................       switch(quad) 
....................       { 
....................          case 1: 
....................          { 
....................             return atan(z); 
....................             break; 
....................          } 
....................          case 2: 
....................          { 
.................... //            return (atan(z)+PI_DIV_BY_TWO);  //2L3122 
....................             return (PI-atan(z)); 
....................             break; 
....................          } 
....................          case 3: 
....................          { 
....................             return (atan(z)-PI); 
....................             break; 
....................          } 
....................          case 4: 
....................          { 
....................             return (-atan(z)); 
....................             break; 
....................          } 
....................       } 
....................    } 
.................... } 
....................  
.................... // Overloaded function atan2() for data type - Float64 
.................... float64 atan2(float64 y,float64 x) 
.................... { 
....................    float64 z; 
....................    int1 sign; 
....................    unsigned int8 quad; 
....................    sign=0; 
....................    quad=0; //quadrant 
....................    quad=((y<=0.0)?((x<=0.0)?3:4):((x<0.0)?2:1)); 
....................    if(y<0.0) 
....................    { 
....................       sign=1; 
....................       y=-y; 
....................    } 
....................    if(x<0.0) 
....................    { 
....................       x=-x; 
....................    } 
....................    if (x==0.0) 
....................    { 
....................       if(y==0.0) 
....................       { 
....................       #ifdef _ERRNO 
....................       { 
....................          errno=EDOM; 
....................       } 
....................       #endif 
....................       } 
....................       else 
....................       { 
....................          if(sign) 
....................          { 
....................          return (-(PI_DIV_BY_TWO)); 
....................          } 
....................          else 
....................          { 
....................          return (PI_DIV_BY_TWO); 
....................          } 
....................       } 
....................    } 
....................    else 
....................    { 
....................       z=y/x; 
....................       switch(quad) 
....................       { 
....................          case 1: 
....................          { 
....................             return atan(z); 
....................             break; 
....................          } 
....................          case 2: 
....................          { 
.................... //            return (atan(z)+PI_DIV_BY_TWO);  //2L3122 
....................             return (PI-atan(z)); 
....................             break; 
....................          } 
....................          case 3: 
....................          { 
....................             return (atan(z)-PI); 
....................             break; 
....................          } 
....................          case 4: 
....................          { 
....................             return (-atan(z)); 
....................             break; 
....................          } 
....................       } 
....................    } 
.................... } 
.................... #endif 
....................  
.................... //////////////////// Hyperbolic functions //////////////////// 
....................  
.................... //////////////////////////////////////////////////////////////////////////// 
.................... //   float cosh(float x) 
.................... //////////////////////////////////////////////////////////////////////////// 
.................... // Description : Computes the hyperbolic cosine value of x 
.................... // Returns : returns the hyperbolic cosine value of x 
.................... // Date : N/A 
.................... // 
....................  
.................... float32 cosh(float32 x) 
.................... { 
....................    return ((exp(x)+exp(-x))*0.5); 
.................... } 
.................... //Overloaded functions for cosh() for PCD 
.................... // Overloaded function cosh() for data type - Float48 
.................... #if defined(__PCD__) 
.................... float48 cosh(float48 x) 
.................... { 
....................    return ((exp(x)+exp(-x))*0.5); 
.................... } 
....................  
.................... // Overloaded function cosh() for data type - Float64 
.................... float64 cosh(float64 x) 
.................... { 
....................    return ((exp(x)+exp(-x))*0.5); 
.................... } 
.................... #endif 
....................  
.................... //////////////////////////////////////////////////////////////////////////// 
.................... //   float sinh(float x) 
.................... //////////////////////////////////////////////////////////////////////////// 
.................... // Description : Computes the hyperbolic sine value of x 
.................... // Returns : returns the hyperbolic sine value of x 
.................... // Date : N/A 
.................... // 
....................  
.................... float32 sinh(float32 x) 
.................... { 
....................  
....................    return ((exp(x) - exp(-x))*0.5); 
.................... } 
.................... //Overloaded functions for sinh() for PCD 
.................... // Overloaded function sinh() for data type - Float48 
.................... #if defined(__PCD__) 
.................... float48 sinh(float48 x) 
.................... { 
....................  
....................    return ((exp(x) - exp(-x))*0.5); 
.................... } 
....................  
.................... // Overloaded function sinh() for data type - Float48 
.................... float64 sinh(float64 x) 
.................... { 
....................  
....................    return ((exp(x) - exp(-x))*0.5); 
.................... } 
.................... #endif 
....................  
.................... //////////////////////////////////////////////////////////////////////////// 
.................... //   float tanh(float x) 
.................... //////////////////////////////////////////////////////////////////////////// 
.................... // Description : Computes the hyperbolic tangent value of x 
.................... // Returns : returns the hyperbolic tangent value of x 
.................... // Date : N/A 
.................... // 
....................  
.................... float32 tanh(float32 x) 
.................... { 
....................    return(sinh(x)/cosh(x)); 
.................... } 
.................... //Overloaded functions for tanh() for PCD 
.................... // Overloaded function tanh() for data type - Float48 
.................... #if defined(__PCD__) 
.................... float48 tanh(float48 x) 
.................... { 
....................    return(sinh(x)/cosh(x)); 
.................... } 
....................  
.................... // Overloaded function tanh() for data type - Float64 
.................... float64 tanh(float64 x) 
.................... { 
....................    return(sinh(x)/cosh(x)); 
.................... } 
.................... #endif 
....................  
.................... //////////////////////////////////////////////////////////////////////////// 
.................... //   float frexp(float x, signed int *exp) 
.................... //////////////////////////////////////////////////////////////////////////// 
.................... // Description : breaks a floating point number into a normalized fraction and an integral 
.................... // power of 2. It stores the integer in the signed int object pointed to by exp. 
.................... // Returns : returns the value x, such that x is a double with magnitude in the interval 
.................... // [1/2,1) or zero, and value equals x times 2 raised to the power *exp.If value is zero, 
.................... // both parts of the result are zero. 
.................... // Date : N/A 
.................... // 
....................  
.................... #define LOG2 .30102999566398119521 
.................... #define LOG2_INV 3.32192809488736234787 
.................... float32 frexp(float32 x, signed int8 *exp) 
.................... { 
....................    float32 res; 
....................    int1 sign = 0; 
....................    if(x == 0.0) 
....................    { 
....................       *exp=0; 
....................       return (0.0); 
....................    } 
....................    if(x < 0.0) 
....................    { 
....................      x=-x; 
....................      sign=1; 
....................    } 
....................    if (x > 1.0) 
....................    { 
....................       *exp=(ceil(log10(x)*LOG2_INV)); 
....................       res=x/(pow(2, *exp)); 
....................       if (res == 1) 
....................       { 
....................          *exp=*exp+1; 
....................           res=.5; 
....................       } 
....................    } 
....................    else 
....................    { 
....................       if(x < 0.5) 
....................       { 
....................          *exp=-1; 
....................          res=x*2; 
....................       } 
....................       else 
....................       { 
....................          *exp=0; 
....................           res=x; 
....................       } 
....................    } 
....................    if(sign) 
....................    { 
....................       res=-res; 
....................    } 
....................    return res; 
.................... } 
....................  
.................... //Overloaded functions for frexp() for PCD 
.................... // Overloaded function frexp() for data type - Float48 
.................... #if defined(__PCD__) 
.................... float48 frexp(float48 x, signed int8 *exp) 
.................... { 
....................    float48 res; 
....................    int1 sign = 0; 
....................    if(x == 0.0) 
....................    { 
....................       *exp=0; 
....................       return (0.0); 
....................    } 
....................    if(x < 0.0) 
....................    { 
....................      x=-x; 
....................      sign=1; 
....................    } 
....................    if (x > 1.0) 
....................    { 
....................       *exp=(ceil(log10(x)*LOG2_INV)); 
....................       res=x/(pow(2, *exp)); 
....................       if (res == 1) 
....................       { 
....................          *exp=*exp+1; 
....................           res=.5; 
....................       } 
....................    } 
....................    else 
....................    { 
....................       if(x < 0.5) 
....................       { 
....................          *exp=-1; 
....................          res=x*2; 
....................       } 
....................       else 
....................       { 
....................          *exp=0; 
....................           res=x; 
....................       } 
....................    } 
....................    if(sign) 
....................    { 
....................       res=-res; 
....................    } 
....................    return res; 
.................... } 
....................  
.................... // Overloaded function frexp() for data type - Float64 
.................... float64 frexp(float64 x, signed int8 *exp) 
.................... { 
....................    float64 res; 
....................    int1 sign = 0; 
....................    if(x == 0.0) 
....................    { 
....................       *exp=0; 
....................       return (0.0); 
....................    } 
....................    if(x < 0.0) 
....................    { 
....................      x=-x; 
....................      sign=1; 
....................    } 
....................    if (x > 1.0) 
....................    { 
....................       *exp=(ceil(log10(x)*LOG2_INV)); 
....................       res=x/(pow(2, *exp)); 
....................       if (res == 1) 
....................       { 
....................          *exp=*exp+1; 
....................           res=.5; 
....................       } 
....................    } 
....................    else 
....................    { 
....................       if(x < 0.5) 
....................       { 
....................          *exp=-1; 
....................          res=x*2; 
....................       } 
....................       else 
....................       { 
....................          *exp=0; 
....................           res=x; 
....................       } 
....................    } 
....................    if(sign) 
....................    { 
....................       res=-res; 
....................    } 
....................    return res; 
.................... } 
.................... #endif 
....................  
.................... ////////////////////////////////////////////////////////////////////////////// 
.................... //   float ldexp(float x, signed int *exp) 
.................... ////////////////////////////////////////////////////////////////////////////// 
.................... // Description : multiplies a floating point number by an integral power of 2. 
.................... // Returns : returns the value of x times 2 raised to the power exp. 
.................... // Date : N/A 
.................... // 
....................  
.................... float32 ldexp(float32 value, signed int8 exp) 
.................... { 
....................    return (value * pow(2,exp)); 
.................... } 
.................... //Overloaded functions for ldexp() for PCD 
.................... // Overloaded function ldexp() for data type - Float48 
....................  
.................... #if defined(__PCD__) 
.................... float48 ldexp(float48 value, signed int8 exp) 
.................... { 
....................    return (value * pow(2,exp)); 
.................... } 
.................... // Overloaded function ldexp() for data type - Float64 
.................... float64 ldexp(float64 value, signed int8 exp) 
.................... { 
....................    return (value * pow(2,exp)); 
.................... } 
.................... #endif 
....................  
.................... #endif 
....................  
.................... #byte    QEICON= 0xFB6    // Thanh ghi dieu khien 
.................... #byte DFLTCON  = 0xf60 
.................... int16    POSCNT;  
.................... #byte    POSCNT= 0xF66   
.................... #byte    POSCNTH= 0xF67 
.................... #byte    POSCNTL= 0xF66 
.................... int16    MAXCNT; 
.................... #byte    MAXCNT= 0xF64   
.................... #byte    MAXCNTH= 0xF65 
.................... #byte    MAXCNTL= 0xF64 
....................  
.................... #define Kp        10 
.................... #define Ki        0.1 
.................... #define Kd        0.01 
.................... #define max_pwm   1000 
.................... #define timer2_value 0.5 
....................  
.................... signed int16 PID, new_err = 0, de_Pos=0, re_Pos=0,I=0,e=0,pwm=0; 
.................... int8 value[4] = {0,0,0,0}; //1444 
....................  
.................... int16 xuatSo(int16 so) 
.................... { 
....................    unsigned int16 bien; 
....................     
....................    bien = so;  // 1444 
*
0210:  MOVFF  17,19
0214:  MOVFF  16,18
....................    value[3] = bien %10;  //4 
0218:  MOVFF  19,1B
021C:  MOVFF  18,1A
0220:  CLRF   1D
0222:  MOVLW  0A
0224:  MOVWF  1C
0226:  RCALL  01CE
0228:  MOVFF  00,15
....................     
....................    bien = bien/10; 
022C:  MOVFF  19,1B
0230:  MOVFF  18,1A
0234:  CLRF   1D
0236:  MOVLW  0A
0238:  MOVWF  1C
023A:  RCALL  01CE
023C:  MOVFF  02,19
0240:  MOVFF  01,18
....................    value[2] = bien%10;  //4 
0244:  MOVFF  19,1B
0248:  MOVFF  18,1A
024C:  CLRF   1D
024E:  MOVLW  0A
0250:  MOVWF  1C
0252:  RCALL  01CE
0254:  MOVFF  00,14
....................     
....................    bien = bien/10;  
0258:  MOVFF  19,1B
025C:  MOVFF  18,1A
0260:  CLRF   1D
0262:  MOVLW  0A
0264:  MOVWF  1C
0266:  RCALL  01CE
0268:  MOVFF  02,19
026C:  MOVFF  01,18
....................    value[1] = bien%10; // 4 
0270:  MOVFF  19,1B
0274:  MOVFF  18,1A
0278:  CLRF   1D
027A:  MOVLW  0A
027C:  MOVWF  1C
027E:  RCALL  01CE
0280:  MOVFF  00,13
....................     
....................    bien = bien/10; 
0284:  MOVFF  19,1B
0288:  MOVFF  18,1A
028C:  CLRF   1D
028E:  MOVLW  0A
0290:  MOVWF  1C
0292:  RCALL  01CE
0294:  MOVFF  02,19
0298:  MOVFF  01,18
....................    value[0] = bien; // 1 
029C:  MOVFF  18,12
02A0:  RETURN 0
.................... } 
....................  
.................... void PID_Conf() 
.................... { 
....................    new_err = de_Pos - re_Pos; 
*
099C:  MOVF   0A,W
099E:  SUBWF  08,W
09A0:  MOVWF  06
09A2:  MOVF   0B,W
09A4:  SUBWFB 09,W
09A6:  MOVWF  07
....................    PID = Kp*new_err; 
09A8:  CLRF   17
09AA:  MOVLW  0A
09AC:  MOVWF  16
09AE:  MOVFF  07,19
09B2:  MOVFF  06,18
09B6:  BRA    0412
09B8:  MOVFF  02,05
09BC:  MOVFF  01,04
....................    I  = e + new_err; 
09C0:  MOVF   06,W
09C2:  ADDWF  0E,W
09C4:  MOVWF  0C
09C6:  MOVF   07,W
09C8:  ADDWFC 0F,W
09CA:  MOVWF  0D
....................    PID = PID + Ki*I; 
09CC:  MOVFF  0D,1B
09D0:  MOVFF  0C,1A
09D4:  RCALL  0464
09D6:  MOVLW  CD
09D8:  MOVWF  19
09DA:  MOVLW  CC
09DC:  MOVWF  18
09DE:  MOVLW  4C
09E0:  MOVWF  17
09E2:  MOVLW  7B
09E4:  MOVWF  16
09E6:  MOVFF  03,1D
09EA:  MOVFF  02,1C
09EE:  MOVFF  01,1B
09F2:  MOVFF  00,1A
09F6:  RCALL  04AC
09F8:  MOVFF  03,19
09FC:  MOVFF  02,18
0A00:  MOVFF  01,17
0A04:  MOVFF  00,16
0A08:  MOVFF  05,1B
0A0C:  MOVFF  04,1A
0A10:  RCALL  0464
0A12:  BCF    FD8.1
0A14:  MOVFF  03,1D
0A18:  MOVFF  02,1C
0A1C:  MOVFF  01,1B
0A20:  MOVFF  00,1A
0A24:  MOVFF  19,21
0A28:  MOVFF  18,20
0A2C:  MOVFF  17,1F
0A30:  MOVFF  16,1E
0A34:  RCALL  059E
0A36:  MOVFF  03,1D
0A3A:  MOVFF  02,1C
0A3E:  MOVFF  01,1B
0A42:  MOVFF  00,1A
0A46:  RCALL  0808
0A48:  MOVFF  02,05
0A4C:  MOVFF  01,04
....................    PID = PID + Kd*(new_err-e)/timer2_value; 
0A50:  MOVF   0E,W
0A52:  SUBWF  06,W
0A54:  MOVWF  00
0A56:  MOVF   0F,W
0A58:  SUBWFB 07,W
0A5A:  MOVWF  03
0A5C:  MOVFF  00,1A
0A60:  MOVWF  1B
0A62:  RCALL  0464
0A64:  MOVLW  0A
0A66:  MOVWF  19
0A68:  MOVLW  D7
0A6A:  MOVWF  18
0A6C:  MOVLW  23
0A6E:  MOVWF  17
0A70:  MOVLW  78
0A72:  MOVWF  16
0A74:  MOVFF  03,1D
0A78:  MOVFF  02,1C
0A7C:  MOVFF  01,1B
0A80:  MOVFF  00,1A
0A84:  RCALL  04AC
0A86:  MOVFF  03,19
0A8A:  MOVFF  02,18
0A8E:  MOVFF  01,17
0A92:  MOVFF  00,16
0A96:  MOVFF  03,1D
0A9A:  MOVFF  02,1C
0A9E:  MOVFF  01,1B
0AA2:  MOVFF  00,1A
0AA6:  CLRF   21
0AA8:  CLRF   20
0AAA:  CLRF   1F
0AAC:  MOVLW  7E
0AAE:  MOVWF  1E
0AB0:  BRA    0840
0AB2:  MOVFF  03,19
0AB6:  MOVFF  02,18
0ABA:  MOVFF  01,17
0ABE:  MOVFF  00,16
0AC2:  MOVFF  05,1B
0AC6:  MOVFF  04,1A
0ACA:  RCALL  0464
0ACC:  BCF    FD8.1
0ACE:  MOVFF  03,1D
0AD2:  MOVFF  02,1C
0AD6:  MOVFF  01,1B
0ADA:  MOVFF  00,1A
0ADE:  MOVFF  19,21
0AE2:  MOVFF  18,20
0AE6:  MOVFF  17,1F
0AEA:  MOVFF  16,1E
0AEE:  RCALL  059E
0AF0:  MOVFF  03,1D
0AF4:  MOVFF  02,1C
0AF8:  MOVFF  01,1B
0AFC:  MOVFF  00,1A
0B00:  RCALL  0808
0B02:  MOVFF  02,05
0B06:  MOVFF  01,04
....................    PWM = PID; 
0B0A:  MOVFF  05,11
0B0E:  MOVFF  04,10
....................    if (PWM > max_pwm) PWM = max_pwm; 
0B12:  BTFSC  11.7
0B14:  BRA    0B2E
0B16:  MOVF   11,W
0B18:  SUBLW  02
0B1A:  BC    0B2E
0B1C:  XORLW  FF
0B1E:  BNZ   0B26
0B20:  MOVF   10,W
0B22:  SUBLW  E8
0B24:  BC    0B2E
0B26:  MOVLW  03
0B28:  MOVWF  11
0B2A:  MOVLW  E8
0B2C:  MOVWF  10
....................    e = new_err; 
0B2E:  MOVFF  07,0F
0B32:  MOVFF  06,0E
....................    set_pwm1_duty(PWM); 
0B36:  MOVFF  11,02
0B3A:  MOVFF  10,01
0B3E:  RRCF   02,F
0B40:  RRCF   01,F
0B42:  RRCF   02,F
0B44:  RRCF   01,F
0B46:  RRCF   02,F
0B48:  MOVFF  01,FBE
0B4C:  RRCF   02,F
0B4E:  RRCF   02,W
0B50:  ANDLW  30
0B52:  MOVWF  00
0B54:  MOVF   FBD,W
0B56:  ANDLW  CF
0B58:  IORWF  00,W
0B5A:  MOVWF  FBD
0B5C:  GOTO   0C90 (RETURN)
.................... } 
....................  
.................... void main() 
0B60:  CLRF   FF8
0B62:  BCF    FD0.7
0B64:  CLRF   07
0B66:  CLRF   06
0B68:  CLRF   09
0B6A:  CLRF   08
0B6C:  CLRF   0B
0B6E:  CLRF   0A
0B70:  CLRF   0D
0B72:  CLRF   0C
0B74:  CLRF   0F
0B76:  CLRF   0E
0B78:  CLRF   11
0B7A:  CLRF   10
0B7C:  BCF    FB9.0
0B7E:  BCF    FC1.6
0B80:  BCF    FC1.7
0B82:  MOVLW  00
0B84:  MOVWF  FB8
0B86:  CLRF   12
0B88:  CLRF   13
0B8A:  CLRF   14
0B8C:  CLRF   15
.................... { 
....................    QEICON   = 0x18; 
0B8E:  MOVLW  18
0B90:  MOVWF  FB6
....................    POSCNT = 0; 
0B92:  CLRF   F67
0B94:  CLRF   F66
....................    MAXCNT  = 65536; 
0B96:  CLRF   F65
0B98:  CLRF   F64
....................    de_Pos = 720; 
0B9A:  MOVLW  02
0B9C:  MOVWF  09
0B9E:  MOVLW  D0
0BA0:  MOVWF  08
....................    setup_timer_2(T2_DIV_BY_16,255,1);// 244hz 
0BA2:  MOVLW  00
0BA4:  IORLW  06
0BA6:  MOVWF  FCA
0BA8:  MOVLW  FF
0BAA:  MOVWF  FCB
....................    setup_ccp1(CCP_PWM); 
0BAC:  BCF    F94.2
0BAE:  BCF    F8B.2
0BB0:  MOVLW  0C
0BB2:  MOVWF  FBD
....................    set_pwm1_duty(0); 
0BB4:  CLRF   FBE
....................    setup_ccp2(CCP_PWM); 
0BB6:  BCF    F94.1
0BB8:  BCF    F8B.1
0BBA:  MOVWF  FBA
....................    lcd_init(); 
0BBC:  GOTO   0170
....................    xuatSo(de_Pos); 
0BC0:  MOVFF  09,17
0BC4:  MOVFF  08,16
0BC8:  CALL   0210
....................    lcd_gotoxy(1,1); 
0BCC:  MOVLW  01
0BCE:  MOVWF  1D
0BD0:  MOVWF  1E
0BD2:  CALL   02A2
....................    lcd_putc('\f'); 
0BD6:  MOVLW  0C
0BD8:  MOVWF  1C
0BDA:  CALL   02E0
....................    printf(lcd_putc,"Inital: %d%d%d%d",value[0],value[1],value[2],value[3]); 
0BDE:  MOVLW  18
0BE0:  MOVWF  FF6
0BE2:  MOVLW  00
0BE4:  MOVWF  FF7
0BE6:  MOVLW  08
0BE8:  MOVWF  16
0BEA:  CALL   0322
0BEE:  MOVFF  12,16
0BF2:  MOVLW  18
0BF4:  MOVWF  17
0BF6:  CALL   0368
0BFA:  MOVFF  13,16
0BFE:  MOVLW  18
0C00:  MOVWF  17
0C02:  CALL   0368
0C06:  MOVFF  14,16
0C0A:  MOVLW  18
0C0C:  MOVWF  17
0C0E:  CALL   0368
0C12:  MOVFF  15,16
0C16:  MOVLW  18
0C18:  MOVWF  17
0C1A:  CALL   0368
....................    while(TRUE) 
....................    { 
....................       re_Pos = POSCNT/4; 
0C1E:  RRCF   F67,W
0C20:  MOVWF  03
0C22:  RRCF   F66,W
0C24:  MOVWF  02
0C26:  RRCF   03,F
0C28:  RRCF   02,F
0C2A:  MOVLW  3F
0C2C:  ANDWF  03,F
0C2E:  MOVFF  02,0A
0C32:  MOVFF  03,0B
....................       xuatSo(re_Pos); 
0C36:  MOVFF  0B,17
0C3A:  MOVFF  0A,16
0C3E:  CALL   0210
....................       lcd_gotoxy(1,2); 
0C42:  MOVLW  01
0C44:  MOVWF  1D
0C46:  MOVLW  02
0C48:  MOVWF  1E
0C4A:  CALL   02A2
....................       printf(lcd_putc,"Respond: %d%d%d%d",value[0],value[1],value[2],value[3]); 
0C4E:  MOVLW  2A
0C50:  MOVWF  FF6
0C52:  MOVLW  00
0C54:  MOVWF  FF7
0C56:  MOVLW  09
0C58:  MOVWF  16
0C5A:  CALL   0322
0C5E:  MOVFF  12,16
0C62:  MOVLW  18
0C64:  MOVWF  17
0C66:  CALL   0368
0C6A:  MOVFF  13,16
0C6E:  MOVLW  18
0C70:  MOVWF  17
0C72:  CALL   0368
0C76:  MOVFF  14,16
0C7A:  MOVLW  18
0C7C:  MOVWF  17
0C7E:  CALL   0368
0C82:  MOVFF  15,16
0C86:  MOVLW  18
0C88:  MOVWF  17
0C8A:  CALL   0368
....................       PID_Conf(); 
0C8E:  BRA    099C
0C90:  BRA    0C1E
....................    } 
.................... } 
....................  
0C92:  SLEEP 
....................  
....................  
....................  
....................  

Configuration Fuses:
   Word  1: C100   XT FCMEN IESO
   Word  2: 3E0E   PUT BROWNOUT BORV20 NOWDT WDT32768 NOWINEN
   Word  3: 9D3C   NOPWMPIN LPOL_HIGH HPOL_HIGH T1LOWPOWER FLTAC1 SSP_RC PWM4B5 EXCLKC3 MCLR
   Word  4: 0081   STVREN NOLVP NODEBUG
   Word  5: C00F   NOPROTECT NOCPB NOCPD
   Word  6: E00F   NOWRT NOWRTC NOWRTB NOWRTD
   Word  7: 400F   NOEBTR NOEBTRB
